(dp1
S'carrier Noun'
p2
S'9251'
p3
sS'weigh Verb'
p4
S'13051'
p5
sS'mysterious Adjective'
p6
S'6484'
p7
sS'primary Adjective'
p8
S'26043'
p9
sS'metaphor Noun'
p10
S'7461'
p11
sS'manufacturing Noun'
p12
S'9822'
p13
sS'telescope Noun'
p14
S'12754'
p15
sS'corridor Noun'
p16
S'8842'
p17
sS'journal Noun'
p18
S'11849'
p19
sS'derive Verb'
p20
S'10913'
p21
sS'potential Adjective'
p22
S'31289'
p23
sS'shower Noun'
p24
S'9624'
p25
sS'draft Verb'
p26
S'6234'
p27
sS'lend Verb'
p28
S'7961'
p29
sS'genre Noun'
p30
S'5919'
p31
sS'man Noun'
p32
S'409760'
p33
sS'date Noun'
p34
S'31467'
p35
sS'simply Adverb'
p36
S'66712'
p37
sS'worth Noun'
p38
S'11237'
p39
sS'opponent Noun'
p40
S'15803'
p41
sS'enjoy Verb'
p42
S'44020'
p43
sS'revolution Noun'
p44
S'11800'
p45
sS'routine Noun'
p46
S'12576'
p47
sS'target Noun'
p48
S'29866'
p49
sS'dig Verb'
p50
S'13633'
p51
sS'used Adjective'
p52
S'19130'
p53
sS'kid Verb'
p54
S'5094'
p55
sS'institution Noun'
p56
S'42153'
p57
sS'inside Noun'
p58
S'6955'
p59
sS'accuracy Noun'
p60
S'6942'
p61
sS'alive Adjective'
p62
S'24184'
p63
sS'core Noun'
p64
S'18571'
p65
sS'ancestor Noun'
p66
S'6529'
p67
sS'harsh Adjective'
p68
S'8092'
p69
sS'hesitate Verb'
p70
S'7462'
p71
sS'therapist Noun'
p72
S'7170'
p73
sS'greet Verb'
p74
S'8367'
p75
sS'examination Noun'
p76
S'10722'
p77
sS'standard Noun'
p78
S'49876'
p79
sS'rational Adjective'
p80
S'5941'
p81
sS'test Verb'
p82
S'38644'
p83
sS'cabinet Noun'
p84
S'11846'
p85
sS'string Noun'
p86
S'11974'
p87
sS'imagine Verb'
p88
S'43487'
p89
sS'rib Noun'
p90
S'5662'
p91
sS'supervisor Noun'
p92
S'8049'
p93
sS'concentration Noun'
p94
S'12146'
p95
sS'diamond Noun'
p96
S'6743'
p97
sS'plot Noun'
p98
S'10484'
p99
sS'burst Verb'
p100
S'8393'
p101
sS'main Adjective'
p102
S'43707'
p103
sS'teen Noun'
p104
S'12663'
p105
sS'moon Noun'
p106
S'13959'
p107
sS'fall Noun'
p108
S'38822'
p109
sS'belly Noun'
p110
S'7784'
p111
sS'greatest Adjective'
p112
S'22673'
p113
sS'sector Noun'
p114
S'19103'
p115
sS'diabetes Noun'
p116
S'7073'
p117
sS'academic Adjective'
p118
S'28216'
p119
sS'enable Verb'
p120
S'16293'
p121
sS'undermine Verb'
p122
S'7762'
p123
sS'alleged Adjective'
p124
S'6658'
p125
sS'direction Noun'
p126
S'41280'
p127
sS'English Noun'
p128
S'18719'
p129
sS'average Verb'
p130
S'8106'
p131
sS'declare Verb'
p132
S'20550'
p133
sS'hole Noun'
p134
S'32302'
p135
sS'apology Noun'
p136
S'4972'
p137
sS'potato Noun'
p138
S'15561'
p139
sS'outside Adjective'
p140
S'16797'
p141
sS'net Noun'
p142
S'10918'
p143
sS'coastal Adjective'
p144
S'6880'
p145
sS'careful Adjective'
p146
S'17885'
p147
sS'discrimination Noun'
p148
S'9872'
p149
sS'governor Noun'
p150
S'20802'
p151
sS'diary Noun'
p152
S'5945'
p153
sS'jeans Noun'
p154
S'8851'
p155
sS'pant Noun'
p156
S'12457'
p157
sS'counterpart Noun'
p158
S'7484'
p159
sS'foster Verb'
p160
S'6237'
p161
sS'shorts Noun'
p162
S'5148'
p163
sS'nightmare Noun'
p164
S'7895'
p165
sS'restrict Verb'
p166
S'8340'
p167
sS'south Noun'
p168
S'60630'
p169
sS'potential Noun'
p170
S'17523'
p171
sS'finance Verb'
p172
S'8571'
p173
sS'emphasis Noun'
p174
S'15337'
p175
sS'instruction Noun'
p176
S'25190'
p177
sS'deep Adjective'
p178
S'40126'
p179
sS'huge Adjective'
p180
S'42582'
p181
sS'defender Noun'
p182
S'5136'
p183
sS'client Noun'
p184
S'34027'
p185
sS'compete Verb'
p186
S'17264'
p187
sS'enter Verb'
p188
S'54479'
p189
sS'enormous Adjective'
p190
S'17482'
p191
sS'impression Noun'
p192
S'12746'
p193
sS'writer Noun'
p194
S'39666'
p195
sS'become Verb'
p196
S'259102'
p197
sS'okay Adverb'
p198
S'24243'
p199
sS'rate Verb'
p200
S'10244'
p201
sS'fault Noun'
p202
S'11116'
p203
sS'fear Noun'
p204
S'38857'
p205
sS'narrative Noun'
p206
S'10954'
p207
sS'defendant Noun'
p208
S'9230'
p209
sS'case Noun'
p210
S'200773'
p211
sS'goal Noun'
p212
S'58728'
p213
sS'drum Noun'
p214
S'6423'
p215
sS'weave Verb'
p216
S'5015'
p217
sS'prescription Noun'
p218
S'9169'
p219
sS'district Noun'
p220
S'31327'
p221
sS'attract Verb'
p222
S'19197'
p223
sS'bite Noun'
p224
S'7160'
p225
sS'bid Noun'
p226
S'6954'
p227
sS'form Noun'
p228
S'78493'
p229
sS'killing Noun'
p230
S'9109'
p231
sS'Supreme Adjective'
p232
S'23904'
p233
sS'feature Noun'
p234
S'33344'
p235
sS'hunter Noun'
p236
S'10839'
p237
sS'porch Noun'
p238
S'10894'
p239
sS'similarity Noun'
p240
S'5709'
p241
sS'decide Verb'
p242
S'84035'
p243
sS'item Noun'
p244
S'40336'
p245
sS'screen Noun'
p246
S'30758'
p247
sS'conspiracy Noun'
p248
S'6261'
p249
sS'validity Noun'
p250
S'6401'
p251
sS'employ Verb'
p252
S'18912'
p253
sS'astronomer Noun'
p254
S'8157'
p255
sS'relation Noun'
p256
S'36963'
p257
sS'big Adjective'
p258
S'227169'
p259
sS'move Verb'
p260
S'179388'
p261
sS'hire Verb'
p262
S'25073'
p263
sS'percentage Noun'
p264
S'20774'
p265
sS'delay Noun'
p266
S'9868'
p267
sS'rapidly Adverb'
p268
S'13066'
p269
sS'psychological Adjective'
p270
S'15249'
p271
sS'attorney Noun'
p272
S'37959'
p273
sS'capacity Noun'
p274
S'21102'
p275
sS'positive Adjective'
p276
S'39310'
p277
sS'outfit Noun'
p278
S'5850'
p279
sS'since Adverb'
p280
S'10334'
p281
sS'hospital Noun'
p282
S'58669'
p283
sS'regular Adjective'
p284
S'27244'
p285
sS'dump Verb'
p286
S'7689'
p287
sS'fear Verb'
p288
S'21333'
p289
sS'warm Adjective'
p290
S'28600'
p291
sS'known Adjective'
p292
S'5892'
p293
sS'growth Noun'
p294
S'50904'
p295
sS'state Verb'
p296
S'47977'
p297
sS'ever Adverb'
p298
S'135774'
p299
sS'emerging Adjective'
p300
S'5942'
p301
sS'aid Verb'
p302
S'5676'
p303
sS'notice Noun'
p304
S'7762'
p305
sS'live Verb'
p306
S'176144'
p307
sS'great Adjective'
p308
S'225005'
p309
sS'accompany Verb'
p310
S'13666'
p311
sS'must Verb'
p312
S'171043'
p313
sS'intend Verb'
p314
S'23554'
p315
sS'terribly Adverb'
p316
S'5096'
p317
sS'mineral Noun'
p318
S'5758'
p319
sS'spouse Noun'
p320
S'7510'
p321
sS'briefly Adverb'
p322
S'10125'
p323
sS'following Adjective'
p324
S'26643'
p325
sS'combined Adjective'
p326
S'6495'
p327
sS'guy Noun'
p328
S'110409'
p329
sS'cook Verb'
p330
S'27725'
p331
sS'channel Noun'
p332
S'12975'
p333
sS'crash Verb'
p334
S'9101'
p335
sS'communicate Verb'
p336
S'12179'
p337
sS'Ms Noun'
p338
S'31610'
p339
sS'bless Verb'
p340
S'6293'
p341
sS'equal Adjective'
p342
S'19952'
p343
sS'freeze Verb'
p344
S'11596'
p345
sS'partnership Noun'
p346
S'11115'
p347
sS'border Noun'
p348
S'28636'
p349
sS'certain Adjective'
p350
S'67228'
p351
sS'possibly Adverb'
p352
S'20953'
p353
sS'soap Noun'
p354
S'5952'
p355
sS'original Adjective'
p356
S'34368'
p357
sS'game Noun'
p358
S'146311'
p359
sS'wealthy Adjective'
p360
S'10054'
p361
sS'demonstrate Verb'
p362
S'29170'
p363
sS'acquisition Noun'
p364
S'7338'
p365
sS'harm Verb'
p366
S'5810'
p367
sS'label Verb'
p368
S'7969'
p369
sS'smile Noun'
p370
S'28698'
p371
sS'price Noun'
p372
S'84443'
p373
sS'grief Noun'
p374
S'6591'
p375
sS'pleasure Noun'
p376
S'19099'
p377
sS'candy Noun'
p378
S'8633'
p379
sS'ball Noun'
p380
S'43512'
p381
sS'copy Noun'
p382
S'18244'
p383
sS'oak Noun'
p384
S'5938'
p385
sS'athletic Adjective'
p386
S'10803'
p387
sS'full-time Adjective'
p388
S'6945'
p389
sS'policy Noun'
p390
S'107601'
p391
sS'defend Verb'
p392
S'20510'
p393
sS'cabin Noun'
p394
S'9955'
p395
sS'restore Verb'
p396
S'12814'
p397
sS'beer Noun'
p398
S'19349'
p399
sS'butt Noun'
p400
S'5490'
p401
sS'free Adjective'
p402
S'82090'
p403
sS'home Noun'
p404
S'170527'
p405
sS'multiple Adjective'
p406
S'19512'
p407
sS'conduct Noun'
p408
S'7821'
p409
sS'supplier Noun'
p410
S'6038'
p411
sS'more Adverb'
p412
S'517536'
p413
sS'warning Noun'
p414
S'16205'
p415
sS'ambitious Adjective'
p416
S'6040'
p417
sS'coach Noun'
p418
S'40716'
p419
sS'standing Noun'
p420
S'9691'
p421
sS'gain Noun'
p422
S'15822'
p423
sS'confidence Noun'
p424
S'18955'
p425
sS'monument Noun'
p426
S'6680'
p427
sS'colleague Noun'
p428
S'24370'
p429
sS'lead Noun'
p430
S'23301'
p431
sS'steer Verb'
p432
S'5452'
p433
sS'timing Noun'
p434
S'7345'
p435
sS'procedure Noun'
p436
S'29044'
p437
sS'American Noun'
p438
S'73063'
p439
sS'filter Noun'
p440
S'6210'
p441
sS'lung Noun'
p442
S'9206'
p443
sS'brush Noun'
p444
S'8821'
p445
sS'participate Verb'
p446
S'26500'
p447
sS'thoroughly Adverb'
p448
S'6384'
p449
sS'final Adjective'
p450
S'43589'
p451
sS'senior Noun'
p452
S'6768'
p453
sS'aesthetic Adjective'
p454
S'6647'
p455
sS'sugar Noun'
p456
S'24310'
p457
sS'economist Noun'
p458
S'10625'
p459
sS'toy Noun'
p460
S'13935'
p461
sS'fix Verb'
p462
S'19349'
p463
sS'suspend Verb'
p464
S'7228'
p465
sS'spit Verb'
p466
S'5286'
p467
sS'construction Noun'
p468
S'27114'
p469
sS'nonetheless Adverb'
p470
S'9168'
p471
sS'protest Verb'
p472
S'7871'
p473
sS'disabled Adjective'
p474
S'5952'
p475
sS'northeast Noun'
p476
S'6500'
p477
sS'thanks Noun'
p478
S'23061'
p479
sS'human Noun'
p480
S'22022'
p481
sS'minister Noun'
p482
S'19154'
p483
sS'set Verb'
p484
S'127369'
p485
sS'cottage Noun'
p486
S'5328'
p487
sS'mask Noun'
p488
S'11196'
p489
sS'sensitive Adjective'
p490
S'13115'
p491
sS'fist Noun'
p492
S'7729'
p493
sS'building Noun'
p494
S'78487'
p495
sS'readily Adverb'
p496
S'6964'
p497
sS'criticism Noun'
p498
S'17049'
p499
sS'exhibition Noun'
p500
S'13987'
p501
sS'society Noun'
p502
S'81192'
p503
sS'well-being Noun'
p504
S'6005'
p505
sS'turn Verb'
p506
S'221392'
p507
sS'please Verb'
p508
S'6565'
p509
sS'clinical Adjective'
p510
S'13593'
p511
sS'necessarily Adverb'
p512
S'18334'
p513
sS'produce Verb'
p514
S'74169'
p515
sS'face Noun'
p516
S'127291'
p517
sS'proportion Noun'
p518
S'10521'
p519
sS'barely Adverb'
p520
S'18533'
p521
sS'retire Verb'
p522
S'14979'
p523
sS'sexuality Noun'
p524
S'5531'
p525
sS'request Noun'
p526
S'16241'
p527
sS'kneel Verb'
p528
S'5467'
p529
sS'color Noun'
p530
S'56978'
p531
sS'trap Verb'
p532
S'8030'
p533
sS'pop Noun'
p534
S'8316'
p535
sS'estimated Adjective'
p536
S'8464'
p537
sS'drive Noun'
p538
S'26373'
p539
sS'age Noun'
p540
S'103402'
p541
sS'persist Verb'
p542
S'6013'
p543
sS'civil Adjective'
p544
S'37742'
p545
sS'forget Verb'
p546
S'45571'
p547
sS'tile Noun'
p548
S'5200'
p549
sS'online Adjective'
p550
S'15848'
p551
sS'little Adverb'
p552
S'88697'
p553
sS'citizen Noun'
p554
S'36408'
p555
sS'chicken Noun'
p556
S'24465'
p557
sS'hand Noun'
p558
S'225247'
p559
sS'confession Noun'
p560
S'5074'
p561
sS'approval Noun'
p562
S'12795'
p563
sS'lift Verb'
p564
S'29354'
p565
sS'secure Adjective'
p566
S'6138'
p567
sS'job Noun'
p568
S'154743'
p569
sS'blessing Noun'
p570
S'5222'
p571
sS'experimental Adjective'
p572
S'9019'
p573
sS'coat Noun'
p574
S'16010'
p575
sS'heat Verb'
p576
S'6650'
p577
sS'equivalent Noun'
p578
S'5935'
p579
sS'size Noun'
p580
S'51868'
p581
sS'level Noun'
p582
S'121704'
p583
sS'sophisticated Adjective'
p584
S'9886'
p585
sS'clothes Noun'
p586
S'27033'
p587
sS'toll Noun'
p588
S'5587'
p589
sS'danger Noun'
p590
S'23244'
p591
sS'extraordinary Adjective'
p592
S'12356'
p593
sS'odds Noun'
p594
S'9094'
p595
sS'invitation Noun'
p596
S'6460'
p597
sS'carrot Noun'
p598
S'5718'
p599
sS'arrest Verb'
p600
S'16205'
p601
sS'precisely Adverb'
p602
S'12878'
p603
sS'formerly Adverb'
p604
S'5350'
p605
sS'backyard Noun'
p606
S'5890'
p607
sS'classify Verb'
p608
S'5964'
p609
sS'cocaine Noun'
p610
S'6207'
p611
sS'contend Verb'
p612
S'8249'
p613
sS'apart Adverb'
p614
S'17872'
p615
sS'illness Noun'
p616
S'14726'
p617
sS'light Verb'
p618
S'14720'
p619
sS'plead Verb'
p620
S'8140'
p621
sS'calm Verb'
p622
S'6484'
p623
sS'constitution Noun'
p624
S'6111'
p625
sS'virus Noun'
p626
S'12106'
p627
sS'official Adjective'
p628
S'19628'
p629
sS'manner Noun'
p630
S'20012'
p631
sS'wherever Adverb'
p632
S'7382'
p633
sS'fit Adjective'
p634
S'8550'
p635
sS'streak Noun'
p636
S'5826'
p637
sS'van Noun'
p638
S'8364'
p639
sS'schedule Verb'
p640
S'12881'
p641
sS'age Verb'
p642
S'7005'
p643
sS'bar Noun'
p644
S'39853'
p645
sS'try Verb'
p646
S'294023'
p647
sS'consent Noun'
p648
S'6239'
p649
sS'finding Noun'
p650
S'28246'
p651
sS'library Noun'
p652
S'16314'
p653
sS'arm Noun'
p654
S'84865'
p655
sS'challenge Noun'
p656
S'40380'
p657
sS'creature Noun'
p658
S'14852'
p659
sS'sponsor Verb'
p660
S'8542'
p661
sS'leave Verb'
p662
S'240482'
p663
sS'settle Verb'
p664
S'28827'
p665
sS'productive Adjective'
p666
S'7006'
p667
sS'group Noun'
p668
S'229435'
p669
sS'Democrat Noun'
p670
S'46905'
p671
sS'flag Noun'
p672
S'13655'
p673
sS'team Noun'
p674
S'131489'
p675
sS'tremendous Adjective'
p676
S'11678'
p677
sS'internal Adjective'
p678
S'22025'
p679
sS'dumb Adjective'
p680
S'5486'
p681
sS'back Adverb'
p682
S'367844'
p683
sS'beam Noun'
p684
S'7625'
p685
sS'dancing Noun'
p686
S'5243'
p687
sS'address Verb'
p688
S'39774'
p689
sS'concrete Adjective'
p690
S'8871'
p691
sS'private Adjective'
p692
S'57248'
p693
sS'fork Noun'
p694
S'7742'
p695
sS'drawer Noun'
p696
S'6665'
p697
sS'cooperative Adjective'
p698
S'6671'
p699
sS'stable Adjective'
p700
S'10964'
p701
sS'intent Noun'
p702
S'6879'
p703
sS'birth Noun'
p704
S'24515'
p705
sS'banker Noun'
p706
S'5933'
p707
sS'surely Adverb'
p708
S'13904'
p709
sS'insurance Noun'
p710
S'32928'
p711
sS'rather Adverb'
p712
S'44934'
p713
sS'severely Adverb'
p714
S'5035'
p715
sS'horse Noun'
p716
S'30993'
p717
sS'shortage Noun'
p718
S'6776'
p719
sS'sir Noun'
p720
S'17733'
p721
sS'continue Verb'
p722
S'126029'
p723
sS'probably Adverb'
p724
S'99754'
p725
sS'watch Verb'
p726
S'124976'
p727
sS'suddenly Adverb'
p728
S'43382'
p729
sS'diminish Verb'
p730
S'6875'
p731
sS'pin Noun'
p732
S'6000'
p733
sS'conceive Verb'
p734
S'6486'
p735
sS'hall Noun'
p736
S'20236'
p737
sS'release Noun'
p738
S'15540'
p739
sS'format Noun'
p740
S'7910'
p741
sS'afternoon Noun'
p742
S'33202'
p743
sS'witness Noun'
p744
S'18920'
p745
sS'lie Noun'
p746
S'11199'
p747
sS'frame Noun'
p748
S'20016'
p749
sS'almost Adverb'
p750
S'127907'
p751
sS'bankruptcy Noun'
p752
S'6690'
p753
sS'drive Verb'
p754
S'80476'
p755
sS'first Adverb'
p756
S'17332'
p757
sS'organic Adjective'
p758
S'10572'
p759
sS'ambition Noun'
p760
S'5962'
p761
sS'patrol Noun'
p762
S'6382'
p763
sS'chain Noun'
p764
S'19688'
p765
sS'density Noun'
p766
S'6040'
p767
sS'accelerate Verb'
p768
S'4923'
p769
sS'pollution Noun'
p770
S'11396'
p771
sS'sometimes Adverb'
p772
S'84845'
p773
sS'excuse Noun'
p774
S'7388'
p775
sS'cope Verb'
p776
S'9952'
p777
sS'selected Adjective'
p778
S'5315'
p779
sS'athlete Noun'
p780
S'23868'
p781
sS'hidden Adjective'
p782
S'6787'
p783
sS'longtime Adjective'
p784
S'8439'
p785
sS'trouble Noun'
p786
S'39659'
p787
sS'exhibit Verb'
p788
S'9459'
p789
sS'touchdown Noun'
p790
S'6954'
p791
sS'Bible Noun'
p792
S'11539'
p793
sS'tightly Adverb'
p794
S'6643'
p795
sS'glass Noun'
p796
S'49686'
p797
sS'injure Verb'
p798
S'7574'
p799
sS'golf Noun'
p800
S'20979'
p801
sS'finally Adverb'
p802
S'81951'
p803
sS'check Verb'
p804
S'45760'
p805
sS'premium Noun'
p806
S'5279'
p807
sS'exotic Adjective'
p808
S'6185'
p809
sS'anxiety Noun'
p810
S'14088'
p811
sS'depend Verb'
p812
S'25405'
p813
sS'simple Adjective'
p814
S'50583'
p815
sS'harvest Noun'
p816
S'5125'
p817
sS'pleased Adjective'
p818
S'8502'
p819
sS'grandmother Noun'
p820
S'13670'
p821
sS'night Noun'
p822
S'184511'
p823
sS'wander Verb'
p824
S'9822'
p825
sS'sail Verb'
p826
S'6525'
p827
sS'widely Adverb'
p828
S'16000'
p829
sS'officer Noun'
p830
S'57617'
p831
sS'security Noun'
p832
S'58914'
p833
sS'minor Adjective'
p834
S'12346'
p835
sS'count Verb'
p836
S'28836'
p837
sS'sunlight Noun'
p838
S'7349'
p839
sS'pursue Verb'
p840
S'20136'
p841
sS'dance Noun'
p842
S'21799'
p843
sS'shared Adjective'
p844
S'7069'
p845
sS'slide Noun'
p846
S'7780'
p847
sS'TV Noun'
p848
S'49438'
p849
sS'altogether Adverb'
p850
S'7147'
p851
sS'action Noun'
p852
S'80009'
p853
sS'uncertainty Noun'
p854
S'7671'
p855
sS'study Verb'
p856
S'44897'
p857
sS'end Verb'
p858
S'73099'
p859
sS'German Adjective'
p860
S'20096'
p861
sS'subject Noun'
p862
S'61397'
p863
sS'member Noun'
p864
S'134731'
p865
sS'example Noun'
p866
S'47134'
p867
sS'demographic Adjective'
p868
S'6103'
p869
sS'sacred Adjective'
p870
S'9018'
p871
sS'essence Noun'
p872
S'8388'
p873
sS'prime Adjective'
p874
S'22075'
p875
sS'vehicle Noun'
p876
S'29421'
p877
sS'mutter Verb'
p878
S'5753'
p879
sS'anxious Adjective'
p880
S'7096'
p881
sS'encounter Verb'
p882
S'11974'
p883
sS'specialist Noun'
p884
S'13041'
p885
sS'wish Verb'
p886
S'37532'
p887
sS'integrated Adjective'
p888
S'5455'
p889
sS'depart Verb'
p890
S'5035'
p891
sS'uncertain Adjective'
p892
S'5951'
p893
sS'thought Noun'
p894
S'51509'
p895
sS'solid Adjective'
p896
S'17675'
p897
sS'shove Verb'
p898
S'6327'
p899
sS'issue Verb'
p900
S'19300'
p901
sS'draw Verb'
p902
S'65198'
p903
sS'recruit Verb'
p904
S'9028'
p905
sS'similarly Adverb'
p906
S'12180'
p907
sS'running Adjective'
p908
S'9271'
p909
sS'starting Noun'
p910
S'7118'
p911
sS'design Verb'
p912
S'45946'
p913
sS'sea Noun'
p914
S'39516'
p915
sS'bite Verb'
p916
S'9982'
p917
sS'black Noun'
p918
S'18441'
p919
sS'research Verb'
p920
S'7618'
p921
sS'discuss Verb'
p922
S'46852'
p923
sS'snow Noun'
p924
S'21011'
p925
sS'banking Noun'
p926
S'7120'
p927
sS'exciting Adjective'
p928
S'10595'
p929
sS'tolerance Noun'
p930
S'5513'
p931
sS'bear Verb'
p932
S'22190'
p933
sS'reliable Adjective'
p934
S'8302'
p935
sS'likewise Adverb'
p936
S'5821'
p937
sS'page Noun'
p938
S'55937'
p939
sS'walk Verb'
p940
S'113787'
p941
sS'European Adjective'
p942
S'31455'
p943
sS'compare Verb'
p944
S'48094'
p945
sS'quote Verb'
p946
S'15415'
p947
sS'provider Noun'
p948
S'10196'
p949
sS'absence Noun'
p950
S'13597'
p951
sS'support Verb'
p952
S'76544'
p953
sS'surrounding Adjective'
p954
S'5826'
p955
sS'button Noun'
p956
S'12552'
p957
sS'grand Adjective'
p958
S'15659'
p959
sS'basement Noun'
p960
S'7988'
p961
sS'desire Verb'
p962
S'7454'
p963
sS'species Noun'
p964
S'35804'
p965
sS'etc Adverb'
p966
S'10112'
p967
sS'prevent Verb'
p968
S'36421'
p969
sS'discount Noun'
p970
S'5809'
p971
sS'relationship Noun'
p972
S'84549'
p973
sS'airplane Noun'
p974
S'8254'
p975
sS'pleasant Adjective'
p976
S'7425'
p977
sS'merchant Noun'
p978
S'6474'
p979
sS'citizenship Noun'
p980
S'5602'
p981
sS'hardly Adverb'
p982
S'20757'
p983
sS'silk Noun'
p984
S'7128'
p985
sS'familiar Adjective'
p986
S'24515'
p987
sS'typically Adverb'
p988
S'18254'
p989
sS'musician Noun'
p990
S'10580'
p991
sS'exclude Verb'
p992
S'8780'
p993
sS'living Adjective'
p994
S'16823'
p995
sS'warm Verb'
p996
S'7973'
p997
sS'bombing Noun'
p998
S'10462'
p999
sS'inmate Noun'
p1000
S'6718'
p1001
sS'place Verb'
p1002
S'60927'
p1003
sS'coffee Noun'
p1004
S'28331'
p1005
sS'quote Noun'
p1006
S'6228'
p1007
sS'garlic Noun'
p1008
S'11449'
p1009
sS'deliver Verb'
p1010
S'29169'
p1011
sS'trade Verb'
p1012
S'14624'
p1013
sS'narrow Adjective'
p1014
S'17840'
p1015
sS'enforcement Noun'
p1016
S'15052'
p1017
sS'unprecedented Adjective'
p1018
S'5798'
p1019
sS'armed Adjective'
p1020
S'12966'
p1021
sS'instructor Noun'
p1022
S'9912'
p1023
sS'tropical Adjective'
p1024
S'6473'
p1025
sS'demand Noun'
p1026
S'30519'
p1027
sS'near Adjective'
p1028
S'6296'
p1029
sS'clean Adjective'
p1030
S'24325'
p1031
sS'division Noun'
p1032
S'19772'
p1033
sS'sit Verb'
p1034
S'147185'
p1035
sS'choice Noun'
p1036
S'60487'
p1037
sS'treat Verb'
p1038
S'40264'
p1039
sS'crowded Adjective'
p1040
S'5196'
p1041
sS'honor Noun'
p1042
S'16686'
p1043
sS'spread Verb'
p1044
S'27266'
p1045
sS'blue Noun'
p1046
S'7671'
p1047
sS'analyst Noun'
p1048
S'22662'
p1049
sS'trauma Noun'
p1050
S'5880'
p1051
sS'actively Adverb'
p1052
S'6232'
p1053
sS'playoff Noun'
p1054
S'8803'
p1055
sS'village Noun'
p1056
S'30741'
p1057
sS'damage Verb'
p1058
S'10163'
p1059
sS'fortunately Adverb'
p1060
S'5974'
p1061
sS'tooth Noun'
p1062
S'20515'
p1063
sS'racism Noun'
p1064
S'7026'
p1065
sS'endorse Verb'
p1066
S'7167'
p1067
sS'desire Noun'
p1068
S'23994'
p1069
sS'forehead Noun'
p1070
S'8123'
p1071
sS'shark Noun'
p1072
S'6164'
p1073
sS'fee Noun'
p1074
S'20263'
p1075
sS'identification Noun'
p1076
S'9793'
p1077
sS'tight Adjective'
p1078
S'11641'
p1079
sS'rent Noun'
p1080
S'6360'
p1081
sS'Irish Adjective'
p1082
S'10833'
p1083
sS'lawmaker Noun'
p1084
S'5755'
p1085
sS'yield Noun'
p1086
S'5648'
p1087
sS'neutral Adjective'
p1088
S'6331'
p1089
sS'attribute Verb'
p1090
S'9228'
p1091
sS'capture Verb'
p1092
S'21018'
p1093
sS'urban Adjective'
p1094
S'23889'
p1095
sS'drama Noun'
p1096
S'12393'
p1097
sS'period Noun'
p1098
S'64534'
p1099
sS'fierce Adjective'
p1100
S'5622'
p1101
sS'radio Noun'
p1102
S'43156'
p1103
sS'pick Verb'
p1104
S'77197'
p1105
sS'union Noun'
p1106
S'22380'
p1107
sS'learning Noun'
p1108
S'28869'
p1109
sS'volunteer Verb'
p1110
S'6864'
p1111
sS'pop Verb'
p1112
S'13123'
p1113
sS'blast Noun'
p1114
S'5241'
p1115
sS'thus Adverb'
p1116
S'57039'
p1117
sS'swim Verb'
p1118
S'11342'
p1119
sS'think Verb'
p1120
S'772787'
p1121
sS'fascinating Adjective'
p1122
S'6231'
p1123
sS'English Adjective'
p1124
S'20235'
p1125
sS'mentor Noun'
p1126
S'5757'
p1127
sS'smoke Noun'
p1128
S'14327'
p1129
sS'major Noun'
p1130
S'5678'
p1131
sS'freshman Noun'
p1132
S'7849'
p1133
sS'orange Adjective'
p1134
S'9755'
p1135
sS'brand Noun'
p1136
S'13103'
p1137
sS'matter Verb'
p1138
S'20534'
p1139
sS'snap Verb'
p1140
S'13362'
p1141
sS'dependent Adjective'
p1142
S'10029'
p1143
sS'legend Noun'
p1144
S'8660'
p1145
sS'ridge Noun'
p1146
S'5229'
p1147
sS'project Verb'
p1148
S'7871'
p1149
sS'very Adverb'
p1150
S'391821'
p1151
sS'grade Noun'
p1152
S'27178'
p1153
sS'patient Noun'
p1154
S'72217'
p1155
sS'finance Noun'
p1156
S'11501'
p1157
sS'constant Adjective'
p1158
S'14069'
p1159
sS'tournament Noun'
p1160
S'12684'
p1161
sS'vocal Adjective'
p1162
S'5727'
p1163
sS'currently Adverb'
p1164
S'21636'
p1165
sS'exercise Noun'
p1166
S'25934'
p1167
sS'access Noun'
p1168
S'35310'
p1169
sS'past Adverb'
p1170
S'7921'
p1171
sS'distant Adjective'
p1172
S'12542'
p1173
sS'aware Adjective'
p1174
S'25503'
p1175
sS'practitioner Noun'
p1176
S'6670'
p1177
sS'hell Noun'
p1178
S'27278'
p1179
sS'embarrassed Adjective'
p1180
S'5627'
p1181
sS'tip Noun'
p1182
S'18868'
p1183
sS'approach Verb'
p1184
S'27449'
p1185
sS'furthermore Adverb'
p1186
S'10349'
p1187
sS'halfway Adverb'
p1188
S'5695'
p1189
sS'wind Verb'
p1190
S'12054'
p1191
sS'hardware Noun'
p1192
S'6951'
p1193
sS'coverage Noun'
p1194
S'19522'
p1195
sS'merely Adverb'
p1196
S'18094'
p1197
sS'near Adverb'
p1198
S'6097'
p1199
sS'question Verb'
p1200
S'17924'
p1201
sS'essay Noun'
p1202
S'13802'
p1203
sS'galaxy Noun'
p1204
S'11159'
p1205
sS'plan Verb'
p1206
S'55829'
p1207
sS'stir Verb'
p1208
S'20174'
p1209
sS'horn Noun'
p1210
S'7813'
p1211
sS'chemical Adjective'
p1212
S'12006'
p1213
sS'battery Noun'
p1214
S'9793'
p1215
sS'sympathy Noun'
p1216
S'6044'
p1217
sS'supportive Adjective'
p1218
S'5662'
p1219
sS'cake Noun'
p1220
S'13336'
p1221
sS'tissue Noun'
p1222
S'12342'
p1223
sS'car Noun'
p1224
S'133571'
p1225
sS'current Adjective'
p1226
S'61252'
p1227
sS'ease Verb'
p1228
S'9247'
p1229
sS'flee Verb'
p1230
S'10508'
p1231
sS'thing Noun'
p1232
S'400724'
p1233
sS'disclose Verb'
p1234
S'5879'
p1235
sS'repeatedly Adverb'
p1236
S'9059'
p1237
sS'determine Verb'
p1238
S'52130'
p1239
sS'answer Noun'
p1240
S'49969'
p1241
sS'municipal Adjective'
p1242
S'5536'
p1243
sS'curriculum Noun'
p1244
S'19193'
p1245
sS'insert Verb'
p1246
S'6067'
p1247
sS'arise Verb'
p1248
S'13351'
p1249
sS'legitimate Adjective'
p1250
S'9543'
p1251
sS'solution Noun'
p1252
S'32052'
p1253
sS'advance Verb'
p1254
S'12056'
p1255
sS'offender Noun'
p1256
S'5417'
p1257
sS'recession Noun'
p1258
S'8809'
p1259
sS'path Noun'
p1260
S'28344'
p1261
sS'poor Adjective'
p1262
S'53820'
p1263
sS'costume Noun'
p1264
S'6349'
p1265
sS'crowd Verb'
p1266
S'5083'
p1267
sS'tree Noun'
p1268
S'66630'
p1269
sS'later Adverb'
p1270
S'126495'
p1271
sS'monthly Adjective'
p1272
S'8335'
p1273
sS'exclusively Adverb'
p1274
S'5852'
p1275
sS'life Noun'
p1276
S'333085'
p1277
sS'rage Noun'
p1278
S'6877'
p1279
sS'alike Adverb'
p1280
S'5740'
p1281
sS'flying Adjective'
p1282
S'5056'
p1283
sS'tragic Adjective'
p1284
S'6038'
p1285
sS'assess Verb'
p1286
S'19220'
p1287
sS'girl Noun'
p1288
S'110409'
p1289
sS'perceive Verb'
p1290
S'17180'
p1291
sS'failure Noun'
p1292
S'28234'
p1293
sS'double Verb'
p1294
S'11195'
p1295
sS'troubled Adjective'
p1296
S'4991'
p1297
sS'round Verb'
p1298
S'5247'
p1299
sS'heat Noun'
p1300
S'40363'
p1301
sS'herb Noun'
p1302
S'8279'
p1303
sS'spectacular Adjective'
p1304
S'6276'
p1305
sS'court Noun'
p1306
S'74112'
p1307
sS'credit Verb'
p1308
S'6611'
p1309
sS'tall Adjective'
p1310
S'25304'
p1311
sS'growing Adjective'
p1312
S'26858'
p1313
sS'apartment Noun'
p1314
S'31012'
p1315
sS'silent Adjective'
p1316
S'16802'
p1317
sS'comprise Verb'
p1318
S'6258'
p1319
sS'hip Noun'
p1320
S'12863'
p1321
sS'speak Verb'
p1322
S'117358'
p1323
sS'confident Adjective'
p1324
S'10831'
p1325
sS'shelf Noun'
p1326
S'10741'
p1327
sS'awful Adjective'
p1328
S'9300'
p1329
sS'legislator Noun'
p1330
S'5593'
p1331
sS'vacation Noun'
p1332
S'12424'
p1333
sS'dot Noun'
p1334
S'5795'
p1335
sS'studio Noun'
p1336
S'24765'
p1337
sS'association Noun'
p1338
S'17759'
p1339
sS'rebel Noun'
p1340
S'7525'
p1341
sS'pursuit Noun'
p1342
S'7070'
p1343
sS'difference Noun'
p1344
S'82911'
p1345
sS'sacrifice Verb'
p1346
S'5641'
p1347
sS'let Verb'
p1348
S'240300'
p1349
sS'universal Adjective'
p1350
S'12590'
p1351
sS'translate Verb'
p1352
S'11722'
p1353
sS'specialize Verb'
p1354
S'6538'
p1355
sS'wisdom Noun'
p1356
S'10561'
p1357
sS'display Verb'
p1358
S'16806'
p1359
sS'gym Noun'
p1360
S'7229'
p1361
sS'bread Noun'
p1362
S'16686'
p1363
sS'rental Noun'
p1364
S'5357'
p1365
sS'credibility Noun'
p1366
S'6742'
p1367
sS'bank Noun'
p1368
S'58992'
p1369
sS'effectively Adverb'
p1370
S'13277'
p1371
sS'forever Adverb'
p1372
S'16890'
p1373
sS'obligation Noun'
p1374
S'10538'
p1375
sS'welfare Noun'
p1376
S'19580'
p1377
sS'harmony Noun'
p1378
S'5410'
p1379
sS'tend Verb'
p1380
S'38295'
p1381
sS'station Noun'
p1382
S'46299'
p1383
sS'substantial Adjective'
p1384
S'13376'
p1385
sS'application Noun'
p1386
S'25735'
p1387
sS'Islamic Adjective'
p1388
S'13323'
p1389
sS'abroad Adverb'
p1390
S'8788'
p1391
sS'expression Noun'
p1392
S'24748'
p1393
sS'nuclear Adjective'
p1394
S'34264'
p1395
sS'along Adverb'
p1396
S'32475'
p1397
sS'cigarette Noun'
p1398
S'17160'
p1399
sS'tour Noun'
p1400
S'25781'
p1401
sS'someday Adverb'
p1402
S'5744'
p1403
sS'press Noun'
p1404
S'33410'
p1405
sS'military Adjective'
p1406
S'85152'
p1407
sS'silence Noun'
p1408
S'21169'
p1409
sS'island Noun'
p1410
S'24311'
p1411
sS'coal Noun'
p1412
S'8928'
p1413
sS'land Noun'
p1414
S'69750'
p1415
sS'explode Verb'
p1416
S'9821'
p1417
sS'obviously Adverb'
p1418
S'31299'
p1419
sS'generally Adverb'
p1420
S'33191'
p1421
sS'knock Verb'
p1422
S'17146'
p1423
sS'conviction Noun'
p1424
S'9834'
p1425
sS'initial Adjective'
p1426
S'19019'
p1427
sS'battle Noun'
p1428
S'31989'
p1429
sS'mill Noun'
p1430
S'5761'
p1431
sS'subsidy Noun'
p1432
S'6236'
p1433
sS'conservation Noun'
p1434
S'6129'
p1435
sS'bright Adjective'
p1436
S'29780'
p1437
sS'properly Adverb'
p1438
S'10783'
p1439
sS'no Adverb'
p1440
S'54602'
p1441
sS'generous Adjective'
p1442
S'6907'
p1443
sS'coast Noun'
p1444
S'13515'
p1445
sS'pay Noun'
p1446
S'11883'
p1447
sS'riot Noun'
p1448
S'5203'
p1449
sS'cargo Noun'
p1450
S'4991'
p1451
sS'start Noun'
p1452
S'24071'
p1453
sS'gently Adverb'
p1454
S'12233'
p1455
sS'yard Noun'
p1456
S'39253'
p1457
sS'fill Verb'
p1458
S'56915'
p1459
sS'strain Noun'
p1460
S'7713'
p1461
sS'album Noun'
p1462
S'15869'
p1463
sS'divide Verb'
p1464
S'18337'
p1465
sS'safety Noun'
p1466
S'34188'
p1467
sS'captain Noun'
p1468
S'9087'
p1469
sS'prayer Noun'
p1470
S'16296'
p1471
sS'epidemic Noun'
p1472
S'5010'
p1473
sS'excessive Adjective'
p1474
S'5633'
p1475
sS'panic Noun'
p1476
S'6087'
p1477
sS'deputy Noun'
p1478
S'12972'
p1479
sS'particle Noun'
p1480
S'7925'
p1481
sS'reality Noun'
p1482
S'38397'
p1483
sS'bow Noun'
p1484
S'6800'
p1485
sS'runner Noun'
p1486
S'6333'
p1487
sS'shame Noun'
p1488
S'7347'
p1489
sS'ritual Noun'
p1490
S'8883'
p1491
sS'star Noun'
p1492
S'73695'
p1493
sS'seriously Adverb'
p1494
S'18328'
p1495
sS'squeeze Verb'
p1496
S'11280'
p1497
sS'significantly Adverb'
p1498
S'22038'
p1499
sS'model Noun'
p1500
S'82973'
p1501
sS'cliff Noun'
p1502
S'6117'
p1503
sS'vertical Adjective'
p1504
S'5950'
p1505
sS'debate Noun'
p1506
S'37228'
p1507
sS'seize Verb'
p1508
S'9106'
p1509
sS'history Noun'
p1510
S'114904'
p1511
sS'genetic Adjective'
p1512
S'12069'
p1513
sS'obvious Adjective'
p1514
S'21052'
p1515
sS'master Noun'
p1516
S'18880'
p1517
sS'press Verb'
p1518
S'24716'
p1519
sS'lack Noun'
p1520
S'32157'
p1521
sS'Senate Noun'
p1522
S'36809'
p1523
sS'delicate Adjective'
p1524
S'7332'
p1525
sS'hurricane Noun'
p1526
S'6439'
p1527
sS'contact Noun'
p1528
S'25218'
p1529
sS'actor Noun'
p1530
S'24848'
p1531
sS'overnight Adverb'
p1532
S'5170'
p1533
sS'passenger Noun'
p1534
S'16933'
p1535
sS'journalism Noun'
p1536
S'5684'
p1537
sS'sure Adjective'
p1538
S'116186'
p1539
sS'pepper Noun'
p1540
S'20220'
p1541
sS'steel Noun'
p1542
S'15982'
p1543
sS'concern Verb'
p1544
S'8702'
p1545
sS'secret Adjective'
p1546
S'17305'
p1547
sS'regret Verb'
p1548
S'5479'
p1549
sS'profound Adjective'
p1550
S'7477'
p1551
sS'jail Noun'
p1552
S'13324'
p1553
sS'render Verb'
p1554
S'8288'
p1555
sS'impress Verb'
p1556
S'9896'
p1557
sS'separate Verb'
p1558
S'18251'
p1559
sS'rehabilitation Noun'
p1560
S'5547'
p1561
sS'fur Noun'
p1562
S'5466'
p1563
sS'stop Verb'
p1564
S'121481'
p1565
sS'evolve Verb'
p1566
S'11442'
p1567
sS'rush Verb'
p1568
S'18561'
p1569
sS'patron Noun'
p1570
S'5331'
p1571
sS'fellow Noun'
p1572
S'10339'
p1573
sS'balloon Noun'
p1574
S'5187'
p1575
sS'finish Noun'
p1576
S'7585'
p1577
sS'content Noun'
p1578
S'21821'
p1579
sS'shit Noun'
p1580
S'11047'
p1581
sS'considerably Adverb'
p1582
S'5481'
p1583
sS'appear Verb'
p1584
S'100671'
p1585
sS'faith Noun'
p1586
S'28710'
p1587
sS'sexual Adjective'
p1588
S'41865'
p1589
sS'difficult Adjective'
p1590
S'63947'
p1591
sS'wedding Noun'
p1592
S'15829'
p1593
sS'fuel Noun'
p1594
S'23934'
p1595
sS'disappointed Adjective'
p1596
S'6724'
p1597
sS'radar Noun'
p1598
S'5221'
p1599
sS'position Noun'
p1600
S'77124'
p1601
sS'flexibility Noun'
p1602
S'6149'
p1603
sS'tune Noun'
p1604
S'6887'
p1605
sS'suicide Noun'
p1606
S'15145'
p1607
sS'convict Verb'
p1608
S'7940'
p1609
sS'couple Noun'
p1610
S'74871'
p1611
sS'ship Verb'
p1612
S'7264'
p1613
sS'strengthen Verb'
p1614
S'10159'
p1615
sS'permit Verb'
p1616
S'16764'
p1617
sS'nationwide Adverb'
p1618
S'5104'
p1619
sS'additional Adjective'
p1620
S'29771'
p1621
sS'month Noun'
p1622
S'162685'
p1623
sS'front Adjective'
p1624
S'32087'
p1625
sS'living Noun'
p1626
S'28736'
p1627
sS'hook Verb'
p1628
S'6800'
p1629
sS'space Noun'
p1630
S'75395'
p1631
sS'favorite Adjective'
p1632
S'23159'
p1633
sS'basically Adverb'
p1634
S'23265'
p1635
sS'edit Verb'
p1636
S'6157'
p1637
sS'exceed Verb'
p1638
S'9362'
p1639
sS'rally Noun'
p1640
S'5619'
p1641
sS'ideology Noun'
p1642
S'8485'
p1643
sS'before Adverb'
p1644
S'55608'
p1645
sS'working Adjective'
p1646
S'11200'
p1647
sS'how Adverb'
p1648
S'538893'
p1649
sS'limited Adjective'
p1650
S'18532'
p1651
sS'hide Verb'
p1652
S'31098'
p1653
sS'physics Noun'
p1654
S'9184'
p1655
sS'evidence Noun'
p1656
S'65360'
p1657
sS'range Verb'
p1658
S'20067'
p1659
sS'relative Adjective'
p1660
S'10283'
p1661
sS'account Verb'
p1662
S'19403'
p1663
sS'boom Noun'
p1664
S'9457'
p1665
sS'manager Noun'
p1666
S'46187'
p1667
sS'statistics Noun'
p1668
S'12086'
p1669
sS'constraint Noun'
p1670
S'5942'
p1671
sS'illustrate Verb'
p1672
S'15091'
p1673
sS'son Noun'
p1674
S'80895'
p1675
sS'orange Noun'
p1676
S'9219'
p1677
sS'collapse Noun'
p1678
S'8397'
p1679
sS'care Verb'
p1680
S'42978'
p1681
sS'wine Noun'
p1682
S'26682'
p1683
sS'switch Verb'
p1684
S'12508'
p1685
sS'tear Verb'
p1686
S'15575'
p1687
sS'CEO Noun'
p1688
S'13956'
p1689
sS'jacket Noun'
p1690
S'15692'
p1691
sS'firm Adjective'
p1692
S'9036'
p1693
sS'apple Noun'
p1694
S'12172'
p1695
sS'dream Noun'
p1696
S'39613'
p1697
sS'world Noun'
p1698
S'303506'
p1699
sS'characterize Verb'
p1700
S'11799'
p1701
sS'praise Noun'
p1702
S'4896'
p1703
sS'rise Verb'
p1704
S'53542'
p1705
sS'Israeli Adjective'
p1706
S'17967'
p1707
sS'hope Verb'
p1708
S'81385'
p1709
sS'tone Noun'
p1710
S'17954'
p1711
sS'confess Verb'
p1712
S'6815'
p1713
sS'edition Noun'
p1714
S'9638'
p1715
sS'pot Noun'
p1716
S'15407'
p1717
sS'bike Noun'
p1718
S'17306'
p1719
sS'enemy Noun'
p1720
S'22621'
p1721
sS'mistake Noun'
p1722
S'26080'
p1723
sS'distinctive Adjective'
p1724
S'5373'
p1725
sS'taxpayer Noun'
p1726
S'10113'
p1727
sS'gas Noun'
p1728
S'38194'
p1729
sS'president Noun'
p1730
S'134203'
p1731
sS'chart Noun'
p1732
S'11861'
p1733
sS'intense Adjective'
p1734
S'14452'
p1735
sS'window Noun'
p1736
S'68303'
p1737
sS'practice Noun'
p1738
S'73745'
p1739
sS'treaty Noun'
p1740
S'11689'
p1741
sS'metal Noun'
p1742
S'23317'
p1743
sS'link Verb'
p1744
S'21335'
p1745
sS'expedition Noun'
p1746
S'5467'
p1747
sS'instead Adverb'
p1748
S'39051'
p1749
sS'pioneer Noun'
p1750
S'5755'
p1751
sS'downtown Adverb'
p1752
S'5483'
p1753
sS'capability Noun'
p1754
S'10906'
p1755
sS'southeast Noun'
p1756
S'7589'
p1757
sS'trust Verb'
p1758
S'19482'
p1759
sS'closed Adjective'
p1760
S'7500'
p1761
sS'liquid Noun'
p1762
S'5948'
p1763
sS'either Adverb'
p1764
S'69497'
p1765
sS'terrific Adjective'
p1766
S'6356'
p1767
sS'trading Noun'
p1768
S'8787'
p1769
sS'end Noun'
p1770
S'134104'
p1771
sS'afford Verb'
p1772
S'19035'
p1773
sS'long Adverb'
p1774
S'142007'
p1775
sS'zone Noun'
p1776
S'20472'
p1777
sS'technique Noun'
p1778
S'29828'
p1779
sS'bicycle Noun'
p1780
S'5960'
p1781
sS'builder Noun'
p1782
S'5720'
p1783
sS'capable Adjective'
p1784
S'13933'
p1785
sS'delay Verb'
p1786
S'8333'
p1787
sS'vision Noun'
p1788
S'32358'
p1789
sS'artist Noun'
p1790
S'54353'
p1791
sS'crack Noun'
p1792
S'10330'
p1793
sS'survivor Noun'
p1794
S'10317'
p1795
sS'fleet Noun'
p1796
S'5781'
p1797
sS'complain Verb'
p1798
S'19102'
p1799
sS'want Verb'
p1800
S'514972'
p1801
sS'tomato Noun'
p1802
S'14864'
p1803
sS'less Adverb'
p1804
S'82930'
p1805
sS'seal Verb'
p1806
S'6660'
p1807
sS'testing Noun'
p1808
S'13725'
p1809
sS'rice Noun'
p1810
S'11944'
p1811
sS'tobacco Noun'
p1812
S'10600'
p1813
sS'creation Noun'
p1814
S'16967'
p1815
sS'sufficient Adjective'
p1816
S'10275'
p1817
sS'else Adverb'
p1818
S'87876'
p1819
sS'cool Verb'
p1820
S'8980'
p1821
sS'exposure Noun'
p1822
S'15979'
p1823
sS'production Noun'
p1824
S'42052'
p1825
sS'norm Noun'
p1826
S'9360'
p1827
sS'post Verb'
p1828
S'6558'
p1829
sS'north Noun'
p1830
S'68046'
p1831
sS'proclaim Verb'
p1832
S'5716'
p1833
sS'double Adjective'
p1834
S'15233'
p1835
sS'soften Verb'
p1836
S'5112'
p1837
sS'pair Noun'
p1838
S'25289'
p1839
sS'tale Noun'
p1840
S'15004'
p1841
sS'nice Adjective'
p1842
S'44792'
p1843
sS'function Verb'
p1844
S'9570'
p1845
sS'pulse Noun'
p1846
S'5992'
p1847
sS'shell Noun'
p1848
S'12957'
p1849
sS'customer Noun'
p1850
S'36000'
p1851
sS'promote Verb'
p1852
S'29679'
p1853
sS'switch Noun'
p1854
S'6781'
p1855
sS'responsible Adjective'
p1856
S'27569'
p1857
sS'voluntary Adjective'
p1858
S'5504'
p1859
sS'high Adverb'
p1860
S'8771'
p1861
sS'volunteer Noun'
p1862
S'14958'
p1863
sS'romance Noun'
p1864
S'6705'
p1865
sS'departure Noun'
p1866
S'7008'
p1867
sS'minimum Adjective'
p1868
S'8011'
p1869
sS'weekend Noun'
p1870
S'33239'
p1871
sS'exist Verb'
p1872
S'39341'
p1873
sS'unity Noun'
p1874
S'7810'
p1875
sS'recognition Noun'
p1876
S'14249'
p1877
sS'introduce Verb'
p1878
S'31345'
p1879
sS'setting Noun'
p1880
S'22004'
p1881
sS'treasure Noun'
p1882
S'6648'
p1883
sS'curiosity Noun'
p1884
S'5630'
p1885
sS'defeat Noun'
p1886
S'6380'
p1887
sS'flood Noun'
p1888
S'7986'
p1889
sS'exception Noun'
p1890
S'14136'
p1891
sS'civilian Adjective'
p1892
S'9684'
p1893
sS'shallow Adjective'
p1894
S'6512'
p1895
sS'works Noun'
p1896
S'22722'
p1897
sS'successfully Adverb'
p1898
S'9728'
p1899
sS'portray Verb'
p1900
S'9202'
p1901
sS'brush Verb'
p1902
S'9806'
p1903
sS'travel Verb'
p1904
S'35746'
p1905
sS'transaction Noun'
p1906
S'7418'
p1907
sS'literary Adjective'
p1908
S'12801'
p1909
sS'sorry Adjective'
p1910
S'34270'
p1911
sS'transportation Noun'
p1912
S'14516'
p1913
sS'rank Verb'
p1914
S'8879'
p1915
sS'role Noun'
p1916
S'88666'
p1917
sS'extend Verb'
p1918
S'25969'
p1919
sS'sauce Noun'
p1920
S'15903'
p1921
sS'look Verb'
p1922
S'491707'
p1923
sS'wheat Noun'
p1924
S'5730'
p1925
sS'vote Verb'
p1926
S'35224'
p1927
sS'somewhere Adverb'
p1928
S'23527'
p1929
sS'hair Noun'
p1930
S'69564'
p1931
sS'inevitable Adjective'
p1932
S'7889'
p1933
sS'bed Noun'
p1934
S'60304'
p1935
sS'sake Noun'
p1936
S'8954'
p1937
sS'talented Adjective'
p1938
S'6584'
p1939
sS'mean Verb'
p1940
S'242198'
p1941
sS'barn Noun'
p1942
S'6785'
p1943
sS'enhance Verb'
p1944
S'15393'
p1945
sS'still Adverb'
p1946
S'296953'
p1947
sS'ski Noun'
p1948
S'11656'
p1949
sS'neck Noun'
p1950
S'25716'
p1951
sS'driving Adjective'
p1952
S'7438'
p1953
sS'mix Noun'
p1954
S'11247'
p1955
sS'victim Noun'
p1956
S'36878'
p1957
sS'withdrawal Noun'
p1958
S'6624'
p1959
sS'straighten Verb'
p1960
S'5352'
p1961
sS'metropolitan Adjective'
p1962
S'6149'
p1963
sS'hook Noun'
p1964
S'7382'
p1965
sS'drug Noun'
p1966
S'86231'
p1967
sS'freely Adverb'
p1968
S'5085'
p1969
sS'rail Noun'
p1970
S'8826'
p1971
sS'African-American Adjective'
p1972
S'9121'
p1973
sS'thumb Noun'
p1974
S'7659'
p1975
sS'government Noun'
p1976
S'191314'
p1977
sS'currency Noun'
p1978
S'7753'
p1979
sS'visit Verb'
p1980
S'42941'
p1981
sS'collective Adjective'
p1982
S'9384'
p1983
sS'data Noun'
p1984
S'76594'
p1985
sS'infection Noun'
p1986
S'12402'
p1987
sS'invite Verb'
p1988
S'22158'
p1989
sS'report Verb'
p1990
S'88138'
p1991
sS'membership Noun'
p1992
S'10273'
p1993
sS'weaken Verb'
p1994
S'5640'
p1995
sS'real Adjective'
p1996
S'124187'
p1997
sS'fitness Noun'
p1998
S'9261'
p1999
sS'meaningful Adjective'
p2000
S'7719'
p2001
sS'dose Noun'
p2002
S'8291'
p2003
sS'gentle Adjective'
p2004
S'8766'
p2005
sS'opposition Noun'
p2006
S'19847'
p2007
sS'church Noun'
p2008
S'59466'
p2009
sS'appointment Noun'
p2010
S'9993'
p2011
sS'loyalty Noun'
p2012
S'6604'
p2013
sS'neat Adjective'
p2014
S'5359'
p2015
sS'belong Verb'
p2016
S'21856'
p2017
sS'store Verb'
p2018
S'10446'
p2019
sS'fantastic Adjective'
p2020
S'5269'
p2021
sS'simultaneously Adverb'
p2022
S'7960'
p2023
sS'here Adverb'
p2024
S'412315'
p2025
sS'superior Adjective'
p2026
S'8632'
p2027
sS'barrel Noun'
p2028
S'9951'
p2029
sS'would Verb'
p2030
S'925515'
p2031
sS'heavy Adjective'
p2032
S'39160'
p2033
sS'sweep Verb'
p2034
S'12431'
p2035
sS'firmly Adverb'
p2036
S'7189'
p2037
sS'fresh Adjective'
p2038
S'35974'
p2039
sS'quick Adjective'
p2040
S'29108'
p2041
sS'otherwise Adverb'
p2042
S'23793'
p2043
sS'supply Verb'
p2044
S'13399'
p2045
sS'assembly Noun'
p2046
S'6914'
p2047
sS'football Noun'
p2048
S'25271'
p2049
sS'can Verb'
p2050
S'1022775'
p2051
sS'subsequent Adjective'
p2052
S'9796'
p2053
sS'margin Noun'
p2054
S'8994'
p2055
sS'pat Verb'
p2056
S'5968'
p2057
sS'ribbon Noun'
p2058
S'5159'
p2059
sS'AIDS Noun'
p2060
S'19384'
p2061
sS'accurate Adjective'
p2062
S'11842'
p2063
sS'meanwhile Adverb'
p2064
S'19504'
p2065
sS'teenage Adjective'
p2066
S'7030'
p2067
sS'there Adverb'
p2068
S'333433'
p2069
sS'celebrate Verb'
p2070
S'17421'
p2071
sS'mouth Noun'
p2072
S'40200'
p2073
sS'launch Verb'
p2074
S'20767'
p2075
sS'casino Noun'
p2076
S'6205'
p2077
sS'part Adverb'
p2078
S'19900'
p2079
sS'require Verb'
p2080
S'89280'
p2081
sS'temple Noun'
p2082
S'7949'
p2083
sS'representation Noun'
p2084
S'12063'
p2085
sS'instant Noun'
p2086
S'5755'
p2087
sS'absolutely Adverb'
p2088
S'36740'
p2089
sS'package Noun'
p2090
S'21665'
p2091
sS'wear Verb'
p2092
S'77921'
p2093
sS'accountability Noun'
p2094
S'5409'
p2095
sS'sentence Noun'
p2096
S'17162'
p2097
sS'productivity Noun'
p2098
S'6651'
p2099
sS'street Noun'
p2100
S'71645'
p2101
sS'painting Noun'
p2102
S'39264'
p2103
sS'Hispanic Adjective'
p2104
S'8690'
p2105
sS'onion Noun'
p2106
S'13769'
p2107
sS'ridiculous Adjective'
p2108
S'6695'
p2109
sS'pipe Noun'
p2110
S'10432'
p2111
sS'father Noun'
p2112
S'145051'
p2113
sS'soccer Noun'
p2114
S'9212'
p2115
sS'pig Noun'
p2116
S'8307'
p2117
sS'researcher Noun'
p2118
S'34742'
p2119
sS'public Adverb'
p2120
S'4877'
p2121
sS'unknown Adjective'
p2122
S'11095'
p2123
sS'strip Verb'
p2124
S'6894'
p2125
sS'quiet Adjective'
p2126
S'26732'
p2127
sS'tape Noun'
p2128
S'25730'
p2129
sS'year Noun'
p2130
S'769254'
p2131
sS'anywhere Adverb'
p2132
S'18970'
p2133
sS'peer Noun'
p2134
S'14738'
p2135
sS'cry Noun'
p2136
S'8648'
p2137
sS'painful Adjective'
p2138
S'9896'
p2139
sS'bus Noun'
p2140
S'25850'
p2141
sS'ready Adjective'
p2142
S'50833'
p2143
sS'valid Adjective'
p2144
S'5509'
p2145
sS'cast Verb'
p2146
S'17163'
p2147
sS'stress Verb'
p2148
S'10951'
p2149
sS'too Adverb'
p2150
S'280396'
p2151
sS'resident Noun'
p2152
S'31836'
p2153
sS'employee Noun'
p2154
S'42824'
p2155
sS'corporate Adjective'
p2156
S'23621'
p2157
sS'quest Noun'
p2158
S'6613'
p2159
sS'snake Noun'
p2160
S'8523'
p2161
sS'rubber Adjective'
p2162
S'5190'
p2163
sS'mandate Noun'
p2164
S'7704'
p2165
sS'profit Noun'
p2166
S'21754'
p2167
sS'public Adjective'
p2168
S'119825'
p2169
sS'soft Adjective'
p2170
S'27970'
p2171
sS'variation Noun'
p2172
S'11403'
p2173
sS'fun Noun'
p2174
S'18984'
p2175
sS'mild Adjective'
p2176
S'7211'
p2177
sS'speculate Verb'
p2178
S'5012'
p2179
sS'DNA Noun'
p2180
S'11580'
p2181
sS'eyebrow Noun'
p2182
S'6212'
p2183
sS'skilled Adjective'
p2184
S'5047'
p2185
sS'strictly Adverb'
p2186
S'5532'
p2187
sS'comedy Noun'
p2188
S'9596'
p2189
sS'investment Noun'
p2190
S'38810'
p2191
sS'grip Noun'
p2192
S'7724'
p2193
sS'convinced Adjective'
p2194
S'7389'
p2195
sS'investigator Noun'
p2196
S'15258'
p2197
sS'paint Verb'
p2198
S'24038'
p2199
sS'upper Adjective'
p2200
S'18196'
p2201
sS'medicine Noun'
p2202
S'25511'
p2203
sS'process Verb'
p2204
S'11940'
p2205
sS'camera Noun'
p2206
S'41218'
p2207
sS'represent Verb'
p2208
S'58744'
p2209
sS'Christmas Noun'
p2210
S'28046'
p2211
sS'identify Verb'
p2212
S'53484'
p2213
sS'area Noun'
p2214
S'165812'
p2215
sS'spine Noun'
p2216
S'5110'
p2217
sS'efficient Adjective'
p2218
S'10452'
p2219
sS'interrupt Verb'
p2220
S'8757'
p2221
sS'considerable Adjective'
p2222
S'11544'
p2223
sS'respond Verb'
p2224
S'42139'
p2225
sS'science Noun'
p2226
S'45726'
p2227
sS'both Adverb'
p2228
S'106361'
p2229
sS'alternative Adjective'
p2230
S'13289'
p2231
sS'whole Adjective'
p2232
S'83756'
p2233
sS'scene Noun'
p2234
S'51248'
p2235
sS'accessible Adjective'
p2236
S'5965'
p2237
sS'required Adjective'
p2238
S'5953'
p2239
sS'wrong Adverb'
p2240
S'7038'
p2241
sS'layer Noun'
p2242
S'16250'
p2243
sS'happy Adjective'
p2244
S'51669'
p2245
sS'gifted Adjective'
p2246
S'10941'
p2247
sS'Arab Adjective'
p2248
S'16732'
p2249
sS'hold Noun'
p2250
S'10984'
p2251
sS'wall Noun'
p2252
S'71390'
p2253
sS'midst Noun'
p2254
S'5760'
p2255
sS'form Verb'
p2256
S'44646'
p2257
sS'fat Adjective'
p2258
S'14826'
p2259
sS'offer Verb'
p2260
S'106473'
p2261
sS'kitchen Noun'
p2262
S'39332'
p2263
sS'young Adjective'
p2264
S'160011'
p2265
sS'hate Verb'
p2266
S'24921'
p2267
sS'spoon Noun'
p2268
S'6194'
p2269
sS'skin Noun'
p2270
S'39893'
p2271
sS'slice Noun'
p2272
S'9337'
p2273
sS'color Verb'
p2274
S'5465'
p2275
sS'tool Noun'
p2276
S'30286'
p2277
sS'settlement Noun'
p2278
S'16172'
p2279
sS'joy Noun'
p2280
S'11171'
p2281
sS'interested Adjective'
p2282
S'29155'
p2283
sS'play Noun'
p2284
S'41662'
p2285
sS'replacement Noun'
p2286
S'7734'
p2287
sS'center Noun'
p2288
S'74559'
p2289
sS'punishment Noun'
p2290
S'9986'
p2291
sS'nasty Adjective'
p2292
S'5682'
p2293
sS'easy Adjective'
p2294
S'71602'
p2295
sS'fire Verb'
p2296
S'25390'
p2297
sS'accuse Verb'
p2298
S'17778'
p2299
sS'sleep Verb'
p2300
S'34801'
p2301
sS'taste Noun'
p2302
S'17409'
p2303
sS'innovative Adjective'
p2304
S'5921'
p2305
sS'verbal Adjective'
p2306
S'7227'
p2307
sS'slice Verb'
p2308
S'7316'
p2309
sS'flash Noun'
p2310
S'6741'
p2311
sS'medal Noun'
p2312
S'8991'
p2313
sS'season Noun'
p2314
S'83743'
p2315
sS'towel Noun'
p2316
S'7978'
p2317
sS'spot Noun'
p2318
S'31612'
p2319
sS'death Noun'
p2320
S'93222'
p2321
sS'hot Adjective'
p2322
S'54601'
p2323
sS'strain Verb'
p2324
S'5435'
p2325
sS'vendor Noun'
p2326
S'5543'
p2327
sS'pole Noun'
p2328
S'11446'
p2329
sS'disk Noun'
p2330
S'7898'
p2331
sS'wake Verb'
p2332
S'21330'
p2333
sS'discovery Noun'
p2334
S'15358'
p2335
sS'molecule Noun'
p2336
S'5445'
p2337
sS'nominee Noun'
p2338
S'7138'
p2339
sS'score Noun'
p2340
S'39294'
p2341
sS'shuttle Noun'
p2342
S'7593'
p2343
sS'approximately Adverb'
p2344
S'15172'
p2345
sS'meet Verb'
p2346
S'128737'
p2347
sS'questionnaire Noun'
p2348
S'9123'
p2349
sS'aide Noun'
p2350
S'10335'
p2351
sS'determination Noun'
p2352
S'7170'
p2353
sS'sexy Adjective'
p2354
S'6300'
p2355
sS'textbook Noun'
p2356
S'5968'
p2357
sS'terrorist Adjective'
p2358
S'10390'
p2359
sS'descend Verb'
p2360
S'6896'
p2361
sS'suite Noun'
p2362
S'5321'
p2363
sS'shut Verb'
p2364
S'24773'
p2365
sS'web Noun'
p2366
S'6411'
p2367
sS'limitation Noun'
p2368
S'11038'
p2369
sS'device Noun'
p2370
S'24918'
p2371
sS'massive Adjective'
p2372
S'17551'
p2373
sS'travel Noun'
p2374
S'18634'
p2375
sS'French Adjective'
p2376
S'27590'
p2377
sS'genius Noun'
p2378
S'6509'
p2379
sS'sample Noun'
p2380
S'32436'
p2381
sS'meat Noun'
p2382
S'20271'
p2383
sS'outcome Noun'
p2384
S'22721'
p2385
sS'hunger Noun'
p2386
S'5460'
p2387
sS'jump Verb'
p2388
S'28504'
p2389
sS'authorize Verb'
p2390
S'5209'
p2391
sS'locate Verb'
p2392
S'21843'
p2393
sS'define Verb'
p2394
S'33958'
p2395
sS'unusual Adjective'
p2396
S'16997'
p2397
sS'list Verb'
p2398
S'17006'
p2399
sS'flesh Noun'
p2400
S'9867'
p2401
sS'fiscal Adjective'
p2402
S'8005'
p2403
sS'executive Noun'
p2404
S'47338'
p2405
sS'statute Noun'
p2406
S'6838'
p2407
sS'pack Noun'
p2408
S'13238'
p2409
sS'northern Adjective'
p2410
S'23783'
p2411
sS'telephone Noun'
p2412
S'19311'
p2413
sS'justice Noun'
p2414
S'25377'
p2415
sS'sneak Verb'
p2416
S'5690'
p2417
sS'counselor Noun'
p2418
S'12170'
p2419
sS'rely Verb'
p2420
S'19614'
p2421
sS'pile Verb'
p2422
S'5609'
p2423
sS'open Adjective'
p2424
S'67218'
p2425
sS'shape Verb'
p2426
S'13859'
p2427
sS'dam Noun'
p2428
S'5968'
p2429
sS'sensitivity Noun'
p2430
S'5981'
p2431
sS'repair Noun'
p2432
S'7088'
p2433
sS'likelihood Noun'
p2434
S'5790'
p2435
sS'climb Verb'
p2436
S'24367'
p2437
sS'begin Verb'
p2438
S'218617'
p2439
sS'overcome Verb'
p2440
S'11801'
p2441
sS'broad Adjective'
p2442
S'27191'
p2443
sS'folk Noun'
p2444
S'28698'
p2445
sS'lip Noun'
p2446
S'25250'
p2447
sS'commodity Noun'
p2448
S'5659'
p2449
sS'behind Adverb'
p2450
S'17347'
p2451
sS'rock Noun'
p2452
S'45225'
p2453
sS'liver Noun'
p2454
S'5415'
p2455
sS'stem Verb'
p2456
S'6712'
p2457
sS'innovation Noun'
p2458
S'8099'
p2459
sS'patent Noun'
p2460
S'6024'
p2461
sS'clerk Noun'
p2462
S'7234'
p2463
sS'weekly Adjective'
p2464
S'9297'
p2465
sS'jaw Noun'
p2466
S'6922'
p2467
sS'wild Adjective'
p2468
S'29473'
p2469
sS'annually Adverb'
p2470
S'6928'
p2471
sS'remarkable Adjective'
p2472
S'11683'
p2473
sS'rescue Noun'
p2474
S'7094'
p2475
sS'river Noun'
p2476
S'28862'
p2477
sS'envelope Noun'
p2478
S'7241'
p2479
sS'market Noun'
p2480
S'100435'
p2481
sS'Muslim Noun'
p2482
S'8498'
p2483
sS'win Verb'
p2484
S'111478'
p2485
sS'visible Adjective'
p2486
S'14691'
p2487
sS'importantly Adverb'
p2488
S'5130'
p2489
sS'defense Noun'
p2490
S'59701'
p2491
sS'shade Noun'
p2492
S'10677'
p2493
sS'originally Adverb'
p2494
S'10995'
p2495
sS'deploy Verb'
p2496
S'5674'
p2497
sS'self-esteem Noun'
p2498
S'6727'
p2499
sS'adolescent Noun'
p2500
S'10568'
p2501
sS'crystal Noun'
p2502
S'8035'
p2503
sS'museum Noun'
p2504
S'21715'
p2505
sS'nearly Adverb'
p2506
S'64860'
p2507
sS'utilize Verb'
p2508
S'6607'
p2509
sS'occasional Adjective'
p2510
S'8162'
p2511
sS'inflation Noun'
p2512
S'9758'
p2513
sS'skip Verb'
p2514
S'5635'
p2515
sS'door Noun'
p2516
S'124993'
p2517
sS'sequence Noun'
p2518
S'10041'
p2519
sS'traditionally Adverb'
p2520
S'7717'
p2521
sS'suggestion Noun'
p2522
S'13145'
p2523
sS'bedroom Noun'
p2524
S'20387'
p2525
sS'cold Adjective'
p2526
S'44649'
p2527
sS'cause Verb'
p2528
S'64531'
p2529
sS'cool Adjective'
p2530
S'26279'
p2531
sS'deserve Verb'
p2532
S'14944'
p2533
sS'claim Noun'
p2534
S'28609'
p2535
sS'mass Adjective'
p2536
S'15939'
p2537
sS'buddy Noun'
p2538
S'6554'
p2539
sS'funny Adjective'
p2540
S'20399'
p2541
sS'permission Noun'
p2542
S'9298'
p2543
sS'publicity Noun'
p2544
S'5557'
p2545
sS'late Adverb'
p2546
S'19727'
p2547
sS'comparison Noun'
p2548
S'16809'
p2549
sS'part Noun'
p2550
S'207861'
p2551
sS'route Noun'
p2552
S'18313'
p2553
sS'middle Adjective'
p2554
S'40402'
p2555
sS'dock Noun'
p2556
S'5178'
p2557
sS'little Adjective'
p2558
S'149658'
p2559
sS'sensation Noun'
p2560
S'5882'
p2561
sS'convey Verb'
p2562
S'7529'
p2563
sS'personal Adjective'
p2564
S'67917'
p2565
sS'pen Noun'
p2566
S'8117'
p2567
sS'trap Noun'
p2568
S'6694'
p2569
sS'T-shirt Noun'
p2570
S'8386'
p2571
sS'residential Adjective'
p2572
S'7415'
p2573
sS'tendency Noun'
p2574
S'10642'
p2575
sS'future Adjective'
p2576
S'31494'
p2577
sS'monitor Verb'
p2578
S'14499'
p2579
sS'time Noun'
p2580
S'764657'
p2581
sS'broadcast Noun'
p2582
S'8130'
p2583
sS'purchase Verb'
p2584
S'16064'
p2585
sS'Congress Noun'
p2586
S'62841'
p2587
sS'net Adjective'
p2588
S'8563'
p2589
sS'steal Verb'
p2590
S'20296'
p2591
sS'sidewalk Noun'
p2592
S'7668'
p2593
sS'immediately Adverb'
p2594
S'33067'
p2595
sS'special Adjective'
p2596
S'75298'
p2597
sS'shoot Verb'
p2598
S'53038'
p2599
sS'outdoor Adjective'
p2600
S'8101'
p2601
sS'attack Noun'
p2602
S'50898'
p2603
sS'handful Noun'
p2604
S'9735'
p2605
sS'random Adjective'
p2606
S'7818'
p2607
sS'govern Verb'
p2608
S'7668'
p2609
sS'endless Adjective'
p2610
S'7458'
p2611
sS'giant Adjective'
p2612
S'12963'
p2613
sS'array Noun'
p2614
S'8167'
p2615
sS'create Verb'
p2616
S'119419'
p2617
sS'heel Noun'
p2618
S'10288'
p2619
sS'disagree Verb'
p2620
S'12280'
p2621
sS'discourse Noun'
p2622
S'10560'
p2623
sS'digital Adjective'
p2624
S'15048'
p2625
sS'note Verb'
p2626
S'57025'
p2627
sS'combat Noun'
p2628
S'8675'
p2629
sS'suburban Adjective'
p2630
S'8463'
p2631
sS'hurt Verb'
p2632
S'34445'
p2633
sS'research Noun'
p2634
S'114802'
p2635
sS'curious Adjective'
p2636
S'9738'
p2637
sS'female Noun'
p2638
S'18932'
p2639
sS'wrist Noun'
p2640
S'8250'
p2641
sS'foundation Noun'
p2642
S'15273'
p2643
sS'spell Verb'
p2644
S'5887'
p2645
sS'pain Noun'
p2646
S'41350'
p2647
sS'enact Verb'
p2648
S'5441'
p2649
sS'frequently Adverb'
p2650
S'20508'
p2651
sS'decorate Verb'
p2652
S'5997'
p2653
sS'dramatically Adverb'
p2654
S'8712'
p2655
sS'feel Verb'
p2656
S'275214'
p2657
sS'somehow Adverb'
p2658
S'22267'
p2659
sS'laser Noun'
p2660
S'7197'
p2661
sS'comment Verb'
p2662
S'12930'
p2663
sS'donation Noun'
p2664
S'6086'
p2665
sS'tag Noun'
p2666
S'5735'
p2667
sS'adequate Adjective'
p2668
S'9406'
p2669
sS'hunt Verb'
p2670
S'8812'
p2671
sS'speaker Noun'
p2672
S'12889'
p2673
sS'terrorism Noun'
p2674
S'13806'
p2675
sS'present Adjective'
p2676
S'30645'
p2677
sS'advance Noun'
p2678
S'14645'
p2679
sS'skull Noun'
p2680
S'6313'
p2681
sS'connect Verb'
p2682
S'22100'
p2683
sS'nevertheless Adverb'
p2684
S'13190'
p2685
sS'bee Noun'
p2686
S'6342'
p2687
sS'openly Adverb'
p2688
S'5558'
p2689
sS'wound Noun'
p2690
S'9404'
p2691
sS'temporary Adjective'
p2692
S'9465'
p2693
sS'add Verb'
p2694
S'117842'
p2695
sS'click Verb'
p2696
S'7549'
p2697
sS'counsel Noun'
p2698
S'9387'
p2699
sS'continuing Adjective'
p2700
S'7845'
p2701
sS'landmark Noun'
p2702
S'5332'
p2703
sS'gender Noun'
p2704
S'22190'
p2705
sS'helicopter Noun'
p2706
S'9986'
p2707
sS'safe Adjective'
p2708
S'36547'
p2709
sS'sculpture Noun'
p2710
S'8659'
p2711
sS'dialogue Noun'
p2712
S'11706'
p2713
sS'course Adverb'
p2714
S'96224'
p2715
sS'correct Verb'
p2716
S'8988'
p2717
sS'surprisingly Adverb'
p2718
S'8704'
p2719
sS'nurse Noun'
p2720
S'19385'
p2721
sS'furniture Noun'
p2722
S'12461'
p2723
sS'final Noun'
p2724
S'8964'
p2725
sS'agree Verb'
p2726
S'76753'
p2727
sS'aisle Noun'
p2728
S'5828'
p2729
sS'associated Adjective'
p2730
S'6754'
p2731
sS'later Adjective'
p2732
S'15734'
p2733
sS'birthday Noun'
p2734
S'13757'
p2735
sS'property Noun'
p2736
S'40027'
p2737
sS'kind Adverb'
p2738
S'29474'
p2739
sS'expectation Noun'
p2740
S'19603'
p2741
sS'bend Verb'
p2742
S'16285'
p2743
sS'glove Noun'
p2744
S'10218'
p2745
sS'cell Noun'
p2746
S'44831'
p2747
sS'welcome Adjective'
p2748
S'7798'
p2749
sS'singer Noun'
p2750
S'11277'
p2751
sS'proud Adjective'
p2752
S'17841'
p2753
sS'supporter Noun'
p2754
S'13970'
p2755
sS'financial Adjective'
p2756
S'47803'
p2757
sS'mixture Noun'
p2758
S'14856'
p2759
sS'banana Noun'
p2760
S'5458'
p2761
sS'store Noun'
p2762
S'56147'
p2763
sS'ease Noun'
p2764
S'6103'
p2765
sS'white Adjective'
p2766
S'126760'
p2767
sS'plate Noun'
p2768
S'24592'
p2769
sS'print Noun'
p2770
S'15634'
p2771
sS'today Adverb'
p2772
S'183724'
p2773
sS'capital Noun'
p2774
S'37443'
p2775
sS'national Adjective'
p2776
S'166359'
p2777
sS'charm Noun'
p2778
S'5157'
p2779
sS'lot Noun'
p2780
S'169570'
p2781
sS'selection Noun'
p2782
S'16706'
p2783
sS'observation Noun'
p2784
S'17500'
p2785
sS'engineering Noun'
p2786
S'14853'
p2787
sS'screw Verb'
p2788
S'5361'
p2789
sS'also Adverb'
p2790
S'464606'
p2791
sS'lay Verb'
p2792
S'49358'
p2793
sS'jewelry Noun'
p2794
S'6338'
p2795
sS'decision Noun'
p2796
S'82429'
p2797
sS'effort Noun'
p2798
S'86473'
p2799
sS'exploration Noun'
p2800
S'7294'
p2801
sS'PM Adverb'
p2802
S'54765'
p2803
sS'process Noun'
p2804
S'107341'
p2805
sS'principle Noun'
p2806
S'30011'
p2807
sS'cotton Noun'
p2808
S'9734'
p2809
sS'tax Noun'
p2810
S'80713'
p2811
sS'weird Adjective'
p2812
S'7709'
p2813
sS'remark Noun'
p2814
S'8453'
p2815
sS'objective Noun'
p2816
S'15107'
p2817
sS'toxic Adjective'
p2818
S'6672'
p2819
sS'educate Verb'
p2820
S'10171'
p2821
sS'natural Adjective'
p2822
S'55526'
p2823
sS'basketball Noun'
p2824
S'20955'
p2825
sS'Persian Adjective'
p2826
S'6340'
p2827
sS'privacy Noun'
p2828
S'9956'
p2829
sS'festival Noun'
p2830
S'7775'
p2831
sS'top Noun'
p2832
S'57743'
p2833
sS'understand Verb'
p2834
S'121354'
p2835
sS'cow Noun'
p2836
S'10032'
p2837
sS'complex Adjective'
p2838
S'23751'
p2839
sS'climate Noun'
p2840
S'17189'
p2841
sS'database Noun'
p2842
S'8094'
p2843
sS'export Noun'
p2844
S'9013'
p2845
sS'practically Adverb'
p2846
S'6914'
p2847
sS'reflection Noun'
p2848
S'11882'
p2849
sS'run Noun'
p2850
S'31325'
p2851
sS'donate Verb'
p2852
S'6606'
p2853
sS'bay Noun'
p2854
S'8209'
p2855
sS'repair Verb'
p2856
S'6730'
p2857
sS'tennis Noun'
p2858
S'9985'
p2859
sS'family Noun'
p2860
S'243267'
p2861
sS'hungry Adjective'
p2862
S'9653'
p2863
sS'abandon Verb'
p2864
S'15323'
p2865
sS'support Noun'
p2866
S'69431'
p2867
sS'awareness Noun'
p2868
S'12013'
p2869
sS'wood Noun'
p2870
S'31801'
p2871
sS'newly Adverb'
p2872
S'11388'
p2873
sS'school Noun'
p2874
S'304183'
p2875
sS'valley Noun'
p2876
S'9708'
p2877
sS'inventory Noun'
p2878
S'7090'
p2879
sS'iron Noun'
p2880
S'15043'
p2881
sS'provide Verb'
p2882
S'150879'
p2883
sS'coach Verb'
p2884
S'15910'
p2885
sS'extra Adjective'
p2886
S'24006'
p2887
sS'distribute Verb'
p2888
S'10747'
p2889
sS'that Adverb'
p2890
S'43359'
p2891
sS'include Verb'
p2892
S'133563'
p2893
sS'slight Adjective'
p2894
S'10500'
p2895
sS'senator Noun'
p2896
S'12091'
p2897
sS'dense Adjective'
p2898
S'5061'
p2899
sS'curve Noun'
p2900
S'8397'
p2901
sS'European Noun'
p2902
S'7688'
p2903
sS'public Noun'
p2904
S'45684'
p2905
sS'when Adverb'
p2906
S'268219'
p2907
sS'classical Adjective'
p2908
S'8475'
p2909
sS'child Noun'
p2910
S'333849'
p2911
sS'spokesman Noun'
p2912
S'12689'
p2913
sS'grasp Verb'
p2914
S'6357'
p2915
sS'fatal Adjective'
p2916
S'4875'
p2917
sS'implementation Noun'
p2918
S'9293'
p2919
sS'supposed Adjective'
p2920
S'31005'
p2921
sS'useful Adjective'
p2922
S'18205'
p2923
sS'mix Verb'
p2924
S'20642'
p2925
sS'effect Noun'
p2926
S'95216'
p2927
sS'premise Noun'
p2928
S'5695'
p2929
sS'tighten Verb'
p2930
S'5665'
p2931
sS'mind Verb'
p2932
S'17378'
p2933
sS'retired Adjective'
p2934
S'7869'
p2935
sS'steady Adjective'
p2936
S'10715'
p2937
sS'extended Adjective'
p2938
S'6641'
p2939
sS'meantime Noun'
p2940
S'5022'
p2941
sS'marketing Noun'
p2942
S'15259'
p2943
sS'sibling Noun'
p2944
S'6102'
p2945
sS'spill Verb'
p2946
S'7798'
p2947
sS'might Verb'
p2948
S'209059'
p2949
sS'die Verb'
p2950
S'98376'
p2951
sS'country Noun'
p2952
S'223138'
p2953
sS'work Verb'
p2954
S'318210'
p2955
sS'thank Verb'
p2956
S'88574'
p2957
sS'arm Verb'
p2958
S'5232'
p2959
sS'up Adverb'
p2960
S'795534'
p2961
sS'trainer Noun'
p2962
S'5845'
p2963
sS'doctrine Noun'
p2964
S'8081'
p2965
sS'memory Noun'
p2966
S'43531'
p2967
sS'butter Noun'
p2968
S'14780'
p2969
sS'frame Verb'
p2970
S'7063'
p2971
sS'operate Verb'
p2972
S'29345'
p2973
sS'inevitably Adverb'
p2974
S'5420'
p2975
sS'late Adjective'
p2976
S'86421'
p2977
sS'western Adjective'
p2978
S'37389'
p2979
sS'transmission Noun'
p2980
S'7829'
p2981
sS'fashion Noun'
p2982
S'18483'
p2983
sS'hope Noun'
p2984
S'33019'
p2985
sS'protective Adjective'
p2986
S'6503'
p2987
sS'tolerate Verb'
p2988
S'5871'
p2989
sS'theological Adjective'
p2990
S'5684'
p2991
sS'mall Noun'
p2992
S'10189'
p2993
sS'worldwide Adverb'
p2994
S'5781'
p2995
sS'formation Noun'
p2996
S'10553'
p2997
sS'struggle Noun'
p2998
S'19014'
p2999
sS'seat Noun'
p3000
S'44404'
p3001
sS'physician Noun'
p3002
S'17707'
p3003
sS'head Noun'
p3004
S'160131'
p3005
sS'least Adverb'
p3006
S'123961'
p3007
sS'involved Adjective'
p3008
S'33428'
p3009
sS'technical Adjective'
p3010
S'17594'
p3011
sS'sport Noun'
p3012
S'59006'
p3013
sS'only Adverb'
p3014
S'379574'
p3015
sS'back Noun'
p3016
S'125006'
p3017
sS'abstract Adjective'
p3018
S'7165'
p3019
sS'sort Verb'
p3020
S'5809'
p3021
sS'follow Verb'
p3022
S'119425'
p3023
sS'schedule Noun'
p3024
S'15987'
p3025
sS'stupid Adjective'
p3026
S'12467'
p3027
sS'cute Adjective'
p3028
S'6089'
p3029
sS'stay Verb'
p3030
S'96933'
p3031
sS'toe Noun'
p3032
S'9047'
p3033
sS'advise Verb'
p3034
S'12709'
p3035
sS'emphasize Verb'
p3036
S'18933'
p3037
sS'anyway Adverb'
p3038
S'28170'
p3039
sS'coin Noun'
p3040
S'5947'
p3041
sS'map Noun'
p3042
S'23666'
p3043
sS'advocate Noun'
p3044
S'12565'
p3045
sS'stumble Verb'
p3046
S'7076'
p3047
sS'cash Noun'
p3048
S'21343'
p3049
sS'anticipate Verb'
p3050
S'9345'
p3051
sS'fact Noun'
p3052
S'164401'
p3053
sS'utility Noun'
p3054
S'13150'
p3055
sS'instrument Noun'
p3056
S'23831'
p3057
sS'desk Noun'
p3058
S'23455'
p3059
sS'pond Noun'
p3060
S'7971'
p3061
sS'household Noun'
p3062
S'18450'
p3063
sS'past Noun'
p3064
S'39559'
p3065
sS'broken Adjective'
p3066
S'12097'
p3067
sS'replace Verb'
p3068
S'32688'
p3069
sS'moral Adjective'
p3070
S'26980'
p3071
sS'bind Verb'
p3072
S'13109'
p3073
sS'insight Noun'
p3074
S'11591'
p3075
sS'liberal Adjective'
p3076
S'18228'
p3077
sS'tribal Adjective'
p3078
S'6995'
p3079
sS'electricity Noun'
p3080
S'11954'
p3081
sS'race Noun'
p3082
S'54838'
p3083
sS'influence Noun'
p3084
S'28387'
p3085
sS'tank Noun'
p3086
S'19158'
p3087
sS'odd Adjective'
p3088
S'11849'
p3089
sS'harvest Verb'
p3090
S'5065'
p3091
sS'promotion Noun'
p3092
S'7416'
p3093
sS'debut Noun'
p3094
S'5986'
p3095
sS'struggle Verb'
p3096
S'21370'
p3097
sS'existence Noun'
p3098
S'15969'
p3099
sS'crash Noun'
p3100
S'11250'
p3101
sS'peasant Noun'
p3102
S'5609'
p3103
sS'suggest Verb'
p3104
S'92643'
p3105
sS'revolutionary Adjective'
p3106
S'6886'
p3107
sS'make Verb'
p3108
S'857168'
p3109
sS'everyday Adjective'
p3110
S'9065'
p3111
sS'flow Verb'
p3112
S'11365'
p3113
sS'cut Noun'
p3114
S'25327'
p3115
sS'track Verb'
p3116
S'11773'
p3117
sS'last Adverb'
p3118
S'8415'
p3119
sS'strike Noun'
p3120
S'13686'
p3121
sS'money Noun'
p3122
S'164794'
p3123
sS'stock Noun'
p3124
S'54305'
p3125
sS'ghost Noun'
p3126
S'9564'
p3127
sS'pillow Noun'
p3128
S'7122'
p3129
sS'available Adjective'
p3130
S'63187'
p3131
sS'select Verb'
p3132
S'21617'
p3133
sS'duck Noun'
p3134
S'8335'
p3135
sS'motor Noun'
p3136
S'9977'
p3137
sS'driver Noun'
p3138
S'31633'
p3139
sS'warrior Noun'
p3140
S'7975'
p3141
sS'trail Noun'
p3142
S'23030'
p3143
sS'criteria Noun'
p3144
S'14160'
p3145
sS'shot Noun'
p3146
S'37505'
p3147
sS'potentially Adverb'
p3148
S'11387'
p3149
sS'violence Noun'
p3150
S'38474'
p3151
sS'cold Noun'
p3152
S'8527'
p3153
sS'ruling Noun'
p3154
S'6947'
p3155
sS'why Adverb'
p3156
S'235442'
p3157
sS'violate Verb'
p3158
S'10822'
p3159
sS'predator Noun'
p3160
S'5400'
p3161
sS'together Adverb'
p3162
S'119186'
p3163
sS'mail Noun'
p3164
S'13024'
p3165
sS'pause Verb'
p3166
S'12583'
p3167
sS'address Noun'
p3168
S'19564'
p3169
sS'boss Noun'
p3170
S'14587'
p3171
sS'around Adverb'
p3172
S'122789'
p3173
sS'kingdom Noun'
p3174
S'5674'
p3175
sS'normally Adverb'
p3176
S'12402'
p3177
sS'ride Verb'
p3178
S'30476'
p3179
sS'Olympic Adjective'
p3180
S'13072'
p3181
sS'response Noun'
p3182
S'56342'
p3183
sS'catalog Noun'
p3184
S'5925'
p3185
sS'offer Noun'
p3186
S'16612'
p3187
sS'ultimately Adverb'
p3188
S'20387'
p3189
sS'slightly Adverb'
p3190
S'26887'
p3191
sS'global Adjective'
p3192
S'36381'
p3193
sS'composition Noun'
p3194
S'10961'
p3195
sS'concentrate Verb'
p3196
S'14155'
p3197
sS'proof Noun'
p3198
S'10775'
p3199
sS'policeman Noun'
p3200
S'5278'
p3201
sS'conflict Noun'
p3202
S'34710'
p3203
sS'old-fashioned Adjective'
p3204
S'5200'
p3205
sS'come Verb'
p3206
S'628254'
p3207
sS'guard Noun'
p3208
S'30159'
p3209
sS'instance Noun'
p3210
S'10885'
p3211
sS'wheelchair Noun'
p3212
S'5670'
p3213
sS'frown Verb'
p3214
S'5903'
p3215
sS'luck Noun'
p3216
S'14186'
p3217
sS'close Verb'
p3218
S'60884'
p3219
sS'hard Adjective'
p3220
S'86817'
p3221
sS'peak Noun'
p3222
S'14481'
p3223
sS'perception Noun'
p3224
S'21086'
p3225
sS'mention Verb'
p3226
S'39815'
p3227
sS'article Noun'
p3228
S'54871'
p3229
sS'beauty Noun'
p3230
S'21060'
p3231
sS'preach Verb'
p3232
S'5063'
p3233
sS'associate Adjective'
p3234
S'5859'
p3235
sS'chapter Noun'
p3236
S'10579'
p3237
sS'light Adjective'
p3238
S'29731'
p3239
sS'point Verb'
p3240
S'62980'
p3241
sS'edge Noun'
p3242
S'40960'
p3243
sS'enthusiasm Noun'
p3244
S'7368'
p3245
sS'person Noun'
p3246
S'113650'
p3247
sS'rare Adjective'
p3248
S'18978'
p3249
sS'muscle Noun'
p3250
S'21931'
p3251
sS'allegation Noun'
p3252
S'8675'
p3253
sS'carpet Noun'
p3254
S'6658'
p3255
sS'fare Noun'
p3256
S'5362'
p3257
sS'closet Noun'
p3258
S'8597'
p3259
sS'crew Noun'
p3260
S'21238'
p3261
sS'managing Adjective'
p3262
S'5126'
p3263
sS'rating Noun'
p3264
S'20413'
p3265
sS'silly Adjective'
p3266
S'6857'
p3267
sS'publish Verb'
p3268
S'35062'
p3269
sS'economics Noun'
p3270
S'9758'
p3271
sS'conscience Noun'
p3272
S'5317'
p3273
sS'popular Adjective'
p3274
S'42399'
p3275
sS'deer Noun'
p3276
S'11665'
p3277
sS'throat Noun'
p3278
S'14681'
p3279
sS'bean Noun'
p3280
S'14996'
p3281
sS'grace Noun'
p3282
S'7634'
p3283
sS'landing Noun'
p3284
S'7646'
p3285
sS'respondent Noun'
p3286
S'15057'
p3287
sS'consensus Noun'
p3288
S'9250'
p3289
sS'sight Noun'
p3290
S'22878'
p3291
sS'planner Noun'
p3292
S'5797'
p3293
sS'specify Verb'
p3294
S'5379'
p3295
sS'businessman Noun'
p3296
S'7190'
p3297
sS'prospect Noun'
p3298
S'14521'
p3299
sS'administrator Noun'
p3300
S'14058'
p3301
sS'exchange Verb'
p3302
S'6394'
p3303
sS'figure Noun'
p3304
S'74858'
p3305
sS'low Adverb'
p3306
S'5024'
p3307
sS'share Noun'
p3308
S'30752'
p3309
sS'diplomat Noun'
p3310
S'5185'
p3311
sS'ship Noun'
p3312
S'32588'
p3313
sS'square Adjective'
p3314
S'11630'
p3315
sS'pocket Noun'
p3316
S'23580'
p3317
sS'forward Adverb'
p3318
S'47877'
p3319
sS'adoption Noun'
p3320
S'7986'
p3321
sS'pressure Noun'
p3322
S'50773'
p3323
sS'pink Adjective'
p3324
S'13849'
p3325
sS'characteristic Noun'
p3326
S'19621'
p3327
sS'fraction Noun'
p3328
S'5313'
p3329
sS'carbohydrate Noun'
p3330
S'8057'
p3331
sS'conscious Adjective'
p3332
S'7152'
p3333
sS'drown Verb'
p3334
S'5097'
p3335
sS'compound Noun'
p3336
S'8573'
p3337
sS'voice Noun'
p3338
S'89379'
p3339
sS'university Noun'
p3340
S'33000'
p3341
sS'Catholic Adjective'
p3342
S'20866'
p3343
sS'possess Verb'
p3344
S'11474'
p3345
sS'anniversary Noun'
p3346
S'8676'
p3347
sS'exit Noun'
p3348
S'7333'
p3349
sS'blanket Noun'
p3350
S'9385'
p3351
sS'economic Adjective'
p3352
S'90392'
p3353
sS'interesting Adjective'
p3354
S'37473'
p3355
sS'encouraging Adjective'
p3356
S'5868'
p3357
sS'surgery Noun'
p3358
S'20118'
p3359
sS'trade Noun'
p3360
S'49696'
p3361
sS'motivation Noun'
p3362
S'10566'
p3363
sS'independence Noun'
p3364
S'15259'
p3365
sS'mission Noun'
p3366
S'35217'
p3367
sS'complaint Noun'
p3368
S'14551'
p3369
sS'monkey Noun'
p3370
S'5698'
p3371
sS'satellite Noun'
p3372
S'12438'
p3373
sS'drag Verb'
p3374
S'16685'
p3375
sS'compliance Noun'
p3376
S'5973'
p3377
sS'right Adjective'
p3378
S'126278'
p3379
sS'happily Adverb'
p3380
S'5331'
p3381
sS'index Noun'
p3382
S'12751'
p3383
sS'usually Adverb'
p3384
S'53477'
p3385
sS'costly Adjective'
p3386
S'6130'
p3387
sS'bet Noun'
p3388
S'5801'
p3389
sS'subtle Adjective'
p3390
S'8442'
p3391
sS'fame Noun'
p3392
S'5485'
p3393
sS'dispute Noun'
p3394
S'12203'
p3395
sS'gap Noun'
p3396
S'16216'
p3397
sS'interview Noun'
p3398
S'41594'
p3399
sS'shrug Verb'
p3400
S'10689'
p3401
sS'mentally Adverb'
p3402
S'5793'
p3403
sS'sudden Adverb'
p3404
S'5211'
p3405
sS'passion Noun'
p3406
S'14632'
p3407
sS'secular Adjective'
p3408
S'6560'
p3409
sS'concert Noun'
p3410
S'13270'
p3411
sS'destination Noun'
p3412
S'7039'
p3413
sS'wash Verb'
p3414
S'16314'
p3415
sS'notion Noun'
p3416
S'21801'
p3417
sS'Jewish Adjective'
p3418
S'20196'
p3419
sS'violent Adjective'
p3420
S'15765'
p3421
sS'reject Verb'
p3422
S'17656'
p3423
sS'especially Adverb'
p3424
S'76304'
p3425
sS'sprinkle Verb'
p3426
S'5777'
p3427
sS'reportedly Adverb'
p3428
S'5911'
p3429
sS'ticket Noun'
p3430
S'23902'
p3431
sS'courage Noun'
p3432
S'8720'
p3433
sS'panel Noun'
p3434
S'22529'
p3435
sS'swing Verb'
p3436
S'14317'
p3437
sS'league Noun'
p3438
S'19766'
p3439
sS'kick Verb'
p3440
S'20092'
p3441
sS'initiative Noun'
p3442
S'16445'
p3443
sS'trust Noun'
p3444
S'15170'
p3445
sS'outsider Noun'
p3446
S'5690'
p3447
sS'expose Verb'
p3448
S'17581'
p3449
sS'like Adjective'
p3450
S'21723'
p3451
sS'officially Adverb'
p3452
S'6462'
p3453
sS'incentive Noun'
p3454
S'12105'
p3455
sS'negotiation Noun'
p3456
S'15680'
p3457
sS'changing Adjective'
p3458
S'9055'
p3459
sS'letter Noun'
p3460
S'60369'
p3461
sS'poster Noun'
p3462
S'7069'
p3463
sS'absolute Adjective'
p3464
S'9622'
p3465
sS'mainstream Adjective'
p3466
S'8170'
p3467
sS'deeply Adverb'
p3468
S'15848'
p3469
sS'factory Noun'
p3470
S'16240'
p3471
sS'salmon Noun'
p3472
S'8860'
p3473
sS'signature Noun'
p3474
S'7349'
p3475
sS'human Adjective'
p3476
S'101224'
p3477
sS'power Noun'
p3478
S'141357'
p3479
sS'tourist Noun'
p3480
S'13895'
p3481
sS'star Verb'
p3482
S'6328'
p3483
sS'elderly Adjective'
p3484
S'10976'
p3485
sS'contrast Noun'
p3486
S'21581'
p3487
sS'development Noun'
p3488
S'91995'
p3489
sS'favor Verb'
p3490
S'13235'
p3491
sS'religion Noun'
p3492
S'28220'
p3493
sS'chief Adjective'
p3494
S'26456'
p3495
sS'table Noun'
p3496
S'75228'
p3497
sS'true Adjective'
p3498
S'79299'
p3499
sS'review Verb'
p3500
S'16916'
p3501
sS'famous Adjective'
p3502
S'24631'
p3503
sS'interfere Verb'
p3504
S'5709'
p3505
sS'police Noun'
p3506
S'85880'
p3507
sS'opening Noun'
p3508
S'18058'
p3509
sS'media Noun'
p3510
S'51798'
p3511
sS'cite Verb'
p3512
S'19011'
p3513
sS'deep Adverb'
p3514
S'21413'
p3515
sS'cloud Noun'
p3516
S'19214'
p3517
sS'cup Noun'
p3518
S'53633'
p3519
sS'wage Noun'
p3520
S'13033'
p3521
sS'argue Verb'
p3522
S'51013'
p3523
sS'essentially Adverb'
p3524
S'15020'
p3525
sS'steep Adjective'
p3526
S'6972'
p3527
sS'residence Noun'
p3528
S'7332'
p3529
sS'laboratory Noun'
p3530
S'9972'
p3531
sS'roof Noun'
p3532
S'16520'
p3533
sS'pet Noun'
p3534
S'9118'
p3535
sS'enough Adverb'
p3536
S'105880'
p3537
sS'stereotype Noun'
p3538
S'5109'
p3539
sS'seller Noun'
p3540
S'5083'
p3541
sS'sin Noun'
p3542
S'9048'
p3543
sS'lady Noun'
p3544
S'25436'
p3545
sS'rarely Adverb'
p3546
S'14912'
p3547
sS'ally Noun'
p3548
S'14025'
p3549
sS'occur Verb'
p3550
S'52768'
p3551
sS'partially Adverb'
p3552
S'5882'
p3553
sS'tragedy Noun'
p3554
S'11039'
p3555
sS'emotional Adjective'
p3556
S'22773'
p3557
sS'instructional Adjective'
p3558
S'7014'
p3559
sS'exact Adjective'
p3560
S'8643'
p3561
sS'priest Noun'
p3562
S'14889'
p3563
sS'ahead Adverb'
p3564
S'39705'
p3565
sS'close Adjective'
p3566
S'43568'
p3567
sS'photograph Noun'
p3568
S'22016'
p3569
sS'search Verb'
p3570
S'20943'
p3571
sS'possibility Noun'
p3572
S'32466'
p3573
sS'experience Verb'
p3574
S'34009'
p3575
sS'coalition Noun'
p3576
S'15720'
p3577
sS'rival Noun'
p3578
S'6005'
p3579
sS'viewer Noun'
p3580
S'13479'
p3581
sS'timber Noun'
p3582
S'5150'
p3583
sS'book Noun'
p3584
S'154013'
p3585
sS'volume Noun'
p3586
S'18989'
p3587
sS'agriculture Noun'
p3588
S'6621'
p3589
sS'moderate Adjective'
p3590
S'9220'
p3591
sS'adult Noun'
p3592
S'40705'
p3593
sS'republican Adjective'
p3594
S'5297'
p3595
sS'chemical Noun'
p3596
S'12673'
p3597
sS'park Noun'
p3598
S'32322'
p3599
sS'provision Noun'
p3600
S'13256'
p3601
sS'inner Adjective'
p3602
S'13545'
p3603
sS'clothing Noun'
p3604
S'12078'
p3605
sS'risky Adjective'
p3606
S'5632'
p3607
sS'responsibility Noun'
p3608
S'37084'
p3609
sS'distance Noun'
p3610
S'31380'
p3611
sS'invade Verb'
p3612
S'5653'
p3613
sS'fish Verb'
p3614
S'5183'
p3615
sS'daily Adjective'
p3616
S'25179'
p3617
sS'momentum Noun'
p3618
S'5911'
p3619
sS'cure Noun'
p3620
S'5468'
p3621
sS'firm Noun'
p3622
S'44704'
p3623
sS'spin Verb'
p3624
S'12673'
p3625
sS'feminist Adjective'
p3626
S'5719'
p3627
sS'fundamental Adjective'
p3628
S'15199'
p3629
sS'breast Noun'
p3630
S'22362'
p3631
sS'dominant Adjective'
p3632
S'10143'
p3633
sS'expertise Noun'
p3634
S'7219'
p3635
sS'consist Verb'
p3636
S'16648'
p3637
sS'colony Noun'
p3638
S'7822'
p3639
sS'writing Noun'
p3640
S'24995'
p3641
sS'choose Verb'
p3642
S'64348'
p3643
sS'second Noun'
p3644
S'56022'
p3645
sS'floor Noun'
p3646
S'62458'
p3647
sS'increasingly Adverb'
p3648
S'23529'
p3649
sS'brutal Adjective'
p3650
S'5193'
p3651
sS'ban Verb'
p3652
S'9226'
p3653
sS'admission Noun'
p3654
S'10356'
p3655
sS'challenge Verb'
p3656
S'20510'
p3657
sS'salt Noun'
p3658
S'24711'
p3659
sS'cultural Adjective'
p3660
S'45673'
p3661
sS'sing Verb'
p3662
S'38575'
p3663
sS'hockey Noun'
p3664
S'6171'
p3665
sS'shock Noun'
p3666
S'14551'
p3667
sS'port Noun'
p3668
S'11893'
p3669
sS'remote Adjective'
p3670
S'11346'
p3671
sS'Republican Noun'
p3672
S'71611'
p3673
sS'progress Noun'
p3674
S'24645'
p3675
sS'influential Adjective'
p3676
S'6161'
p3677
sS'grin Noun'
p3678
S'5944'
p3679
sS'counter Verb'
p3680
S'5722'
p3681
sS'decline Noun'
p3682
S'11956'
p3683
sS'contribution Noun'
p3684
S'20912'
p3685
sS'retailer Noun'
p3686
S'5915'
p3687
sS'entire Adjective'
p3688
S'43997'
p3689
sS'privately Adverb'
p3690
S'5212'
p3691
sS'cling Verb'
p3692
S'5678'
p3693
sS'recording Noun'
p3694
S'8866'
p3695
sS'devil Noun'
p3696
S'5051'
p3697
sS'troop Noun'
p3698
S'36001'
p3699
sS'file Noun'
p3700
S'20832'
p3701
sS'then Adverb'
p3702
S'543977'
p3703
sS'girlfriend Noun'
p3704
S'9832'
p3705
sS'transfer Verb'
p3706
S'14686'
p3707
sS'within Adverb'
p3708
S'5085'
p3709
sS'anonymous Adjective'
p3710
S'5949'
p3711
sS'office Noun'
p3712
S'114791'
p3713
sS'entity Noun'
p3714
S'7276'
p3715
sS'bishop Noun'
p3716
S'8639'
p3717
sS'shift Noun'
p3718
S'15114'
p3719
sS'rip Verb'
p3720
S'8164'
p3721
sS'beat Verb'
p3722
S'38268'
p3723
sS'economy Noun'
p3724
S'60990'
p3725
sS'town Noun'
p3726
S'79821'
p3727
sS'waste Verb'
p3728
S'9956'
p3729
sS'instinct Noun'
p3730
S'6076'
p3731
sS'teaspoon Noun'
p3732
S'15767'
p3733
sS'creativity Noun'
p3734
S'6452'
p3735
sS'sound Verb'
p3736
S'45311'
p3737
sS'accident Noun'
p3738
S'20964'
p3739
sS'significance Noun'
p3740
S'11520'
p3741
sS'key Adjective'
p3742
S'36056'
p3743
sS'thread Noun'
p3744
S'5340'
p3745
sS'reminder Noun'
p3746
S'5681'
p3747
sS'laundry Noun'
p3748
S'5063'
p3749
sS'constitute Verb'
p3750
S'11945'
p3751
sS'sacrifice Noun'
p3752
S'6591'
p3753
sS'necessity Noun'
p3754
S'7071'
p3755
sS'event Noun'
p3756
S'75559'
p3757
sS'squad Noun'
p3758
S'5520'
p3759
sS'driveway Noun'
p3760
S'5459'
p3761
sS'graduate Verb'
p3762
S'12480'
p3763
sS'frontier Noun'
p3764
S'5897'
p3765
sS'breathing Noun'
p3766
S'5798'
p3767
sS'interior Adjective'
p3768
S'6931'
p3769
sS'grow Verb'
p3770
S'110020'
p3771
sS'goat Noun'
p3772
S'5459'
p3773
sS'happen Verb'
p3774
S'182714'
p3775
sS'boot Noun'
p3776
S'15033'
p3777
sS'broker Noun'
p3778
S'6929'
p3779
sS'soak Verb'
p3780
S'5186'
p3781
sS'park Verb'
p3782
S'8650'
p3783
sS'clinic Noun'
p3784
S'14016'
p3785
sS'basis Noun'
p3786
S'30377'
p3787
sS'surprising Adjective'
p3788
S'11327'
p3789
sS'believe Verb'
p3790
S'178397'
p3791
sS'mode Noun'
p3792
S'12107'
p3793
sS'romantic Adjective'
p3794
S'9561'
p3795
sS'fragment Noun'
p3796
S'5308'
p3797
sS'quantity Noun'
p3798
S'6833'
p3799
sS'emerge Verb'
p3800
S'29496'
p3801
sS'golden Adjective'
p3802
S'19852'
p3803
sS'behave Verb'
p3804
S'7546'
p3805
sS'yell Verb'
p3806
S'13131'
p3807
sS'naval Adjective'
p3808
S'4990'
p3809
sS'rate Noun'
p3810
S'87224'
p3811
sS'pour Verb'
p3812
S'19300'
p3813
sS'scary Adjective'
p3814
S'6865'
p3815
sS'traditional Adjective'
p3816
S'43681'
p3817
sS'cheek Noun'
p3818
S'13411'
p3819
sS'rod Noun'
p3820
S'5788'
p3821
sS'excitement Noun'
p3822
S'8160'
p3823
sS'detail Noun'
p3824
S'38750'
p3825
sS'salad Noun'
p3826
S'12103'
p3827
sS'collector Noun'
p3828
S'6976'
p3829
sS'undergo Verb'
p3830
S'9826'
p3831
sS'tight Adverb'
p3832
S'8980'
p3833
sS'assistant Adjective'
p3834
S'11391'
p3835
sS'ownership Noun'
p3836
S'8177'
p3837
sS'faint Adjective'
p3838
S'6886'
p3839
sS'system Noun'
p3840
S'200175'
p3841
sS'discussion Noun'
p3842
S'39616'
p3843
sS'view Noun'
p3844
S'81338'
p3845
sS'escape Verb'
p3846
S'17195'
p3847
sS'king Noun'
p3848
S'14445'
p3849
sS'pitch Verb'
p3850
S'8628'
p3851
sS'conventional Adjective'
p3852
S'13209'
p3853
sS'grocery Noun'
p3854
S'9017'
p3855
sS'seal Noun'
p3856
S'6543'
p3857
sS'be Verb'
p3858
S'12545825'
p3859
sS'husband Noun'
p3860
S'60126'
p3861
sS'college Noun'
p3862
S'97038'
p3863
sS'debate Verb'
p3864
S'6952'
p3865
sS'portrait Noun'
p3866
S'12340'
p3867
sS'sentiment Noun'
p3868
S'6658'
p3869
sS'championship Noun'
p3870
S'16008'
p3871
sS'medication Noun'
p3872
S'9789'
p3873
sS'partner Noun'
p3874
S'37540'
p3875
sS'safely Adverb'
p3876
S'5959'
p3877
sS'lie Verb'
p3878
S'51657'
p3879
sS'mention Noun'
p3880
S'5137'
p3881
sS'script Noun'
p3882
S'8924'
p3883
sS'likely Adjective'
p3884
S'63002'
p3885
sS'radiation Noun'
p3886
S'7912'
p3887
sS'shelter Noun'
p3888
S'10891'
p3889
sS'mortgage Noun'
p3890
S'10022'
p3891
sS'mushroom Noun'
p3892
S'6454'
p3893
sS'circle Noun'
p3894
S'24735'
p3895
sS'tired Adjective'
p3896
S'18597'
p3897
sS'approach Noun'
p3898
S'53980'
p3899
sS'overwhelm Verb'
p3900
S'4976'
p3901
sS'refrigerator Noun'
p3902
S'6497'
p3903
sS'go Verb'
p3904
S'1151045'
p3905
sS'AM Adverb'
p3906
S'34451'
p3907
sS'primarily Adverb'
p3908
S'17015'
p3909
sS'stimulus Noun'
p3910
S'6215'
p3911
sS'cheap Adjective'
p3912
S'18371'
p3913
sS'columnist Noun'
p3914
S'5997'
p3915
sS'defeat Verb'
p3916
S'8945'
p3917
sS'rain Verb'
p3918
S'5597'
p3919
sS'cruel Adjective'
p3920
S'5128'
p3921
sS'peanut Noun'
p3922
S'5604'
p3923
sS'employer Noun'
p3924
S'14846'
p3925
sS'presentation Noun'
p3926
S'11372'
p3927
sS'tide Noun'
p3928
S'6698'
p3929
sS'unlike Adjective'
p3930
S'8103'
p3931
sS'era Noun'
p3932
S'19209'
p3933
sS'particularly Adverb'
p3934
S'50329'
p3935
sS'network Noun'
p3936
S'45122'
p3937
sS'demonstration Noun'
p3938
S'9729'
p3939
sS'widow Noun'
p3940
S'5309'
p3941
sS'interact Verb'
p3942
S'6247'
p3943
sS'lid Noun'
p3944
S'5558'
p3945
sS'invest Verb'
p3946
S'18080'
p3947
sS'editor Noun'
p3948
S'27734'
p3949
sS'plain Noun'
p3950
S'5337'
p3951
sS'Roman Adjective'
p3952
S'8299'
p3953
sS'secondary Adjective'
p3954
S'9121'
p3955
sS'eat Verb'
p3956
S'73505'
p3957
sS'labor Noun'
p3958
S'34400'
p3959
sS'maintain Verb'
p3960
S'43493'
p3961
sS'income Noun'
p3962
S'34925'
p3963
sS'integrity Noun'
p3964
S'8463'
p3965
sS'solely Adverb'
p3966
S'5456'
p3967
sS'green Adjective'
p3968
S'44673'
p3969
sS'confrontation Noun'
p3970
S'5762'
p3971
sS'wilderness Noun'
p3972
S'7916'
p3973
sS'philosophy Noun'
p3974
S'15746'
p3975
sS'arena Noun'
p3976
S'8008'
p3977
sS'alley Noun'
p3978
S'6236'
p3979
sS'lock Noun'
p3980
S'7605'
p3981
sS'drift Verb'
p3982
S'8311'
p3983
sS'infant Noun'
p3984
S'10205'
p3985
sS'assistance Noun'
p3986
S'17396'
p3987
sS'manipulate Verb'
p3988
S'6159'
p3989
sS'background Noun'
p3990
S'26907'
p3991
sS'democratic Adjective'
p3992
S'47299'
p3993
sS'sponsor Noun'
p3994
S'5622'
p3995
sS'sign Verb'
p3996
S'39418'
p3997
sS'date Verb'
p3998
S'13231'
p3999
sS'dough Noun'
p4000
S'6294'
p4001
sS'lunch Noun'
p4002
S'23220'
p4003
sS'organized Adjective'
p4004
S'5011'
p4005
sS'height Noun'
p4006
S'17403'
p4007
sS'scholar Noun'
p4008
S'17482'
p4009
sS'murder Noun'
p4010
S'28335'
p4011
sS'vacuum Noun'
p4012
S'5028'
p4013
sS'silver Noun'
p4014
S'14033'
p4015
sS'rapid Adjective'
p4016
S'10427'
p4017
sS'proceed Verb'
p4018
S'11808'
p4019
sS'ceiling Noun'
p4020
S'12668'
p4021
sS'contain Verb'
p4022
S'42542'
p4023
sS'dynamics Noun'
p4024
S'7084'
p4025
sS'high-tech Adjective'
p4026
S'5681'
p4027
sS'verdict Noun'
p4028
S'6529'
p4029
sS'imply Verb'
p4030
S'12061'
p4031
sS'help Verb'
p4032
S'216082'
p4033
sS'symbolic Adjective'
p4034
S'6755'
p4035
sS'most Adverb'
p4036
S'246360'
p4037
sS'opinion Noun'
p4038
S'34501'
p4039
sS'committee Noun'
p4040
S'26697'
p4041
sS'personally Adverb'
p4042
S'12317'
p4043
sS'asleep Adjective'
p4044
S'10684'
p4045
sS'tent Noun'
p4046
S'10110'
p4047
sS'respect Verb'
p4048
S'11083'
p4049
sS'blame Verb'
p4050
S'19798'
p4051
sS'expand Verb'
p4052
S'23417'
p4053
sS'week Noun'
p4054
S'199268'
p4055
sS'bet Verb'
p4056
S'12079'
p4057
sS'resign Verb'
p4058
S'8867'
p4059
sS'realistic Adjective'
p4060
S'6786'
p4061
sS'judge Verb'
p4062
S'20320'
p4063
sS'buy Verb'
p4064
S'101105'
p4065
sS'dictate Verb'
p4066
S'4935'
p4067
sS'sustain Verb'
p4068
S'10550'
p4069
sS'sword Noun'
p4070
S'7029'
p4071
sS'designer Noun'
p4072
S'14210'
p4073
sS'category Noun'
p4074
S'27219'
p4075
sS'logical Adjective'
p4076
S'5644'
p4077
sS'dawn Noun'
p4078
S'6929'
p4079
sS'reach Noun'
p4080
S'7982'
p4081
sS'upset Adjective'
p4082
S'5954'
p4083
sS'conservative Noun'
p4084
S'11941'
p4085
sS'steam Noun'
p4086
S'6426'
p4087
sS'register Verb'
p4088
S'9389'
p4089
sS'slot Noun'
p4090
S'5130'
p4091
sS'bat Noun'
p4092
S'7694'
p4093
sS'mount Verb'
p4094
S'10303'
p4095
sS'finger Noun'
p4096
S'40842'
p4097
sS'straight Adjective'
p4098
S'13474'
p4099
sS'cut Verb'
p4100
S'96012'
p4101
sS'slip Verb'
p4102
S'21233'
p4103
sS'comment Noun'
p4104
S'27712'
p4105
sS'noise Noun'
p4106
S'18024'
p4107
sS'ruin Verb'
p4108
S'6267'
p4109
sS'result Verb'
p4110
S'29515'
p4111
sS'southern Adjective'
p4112
S'35314'
p4113
sS'eastern Adjective'
p4114
S'25103'
p4115
sS'ought Verb'
p4116
S'21552'
p4117
sS'eager Adjective'
p4118
S'9627'
p4119
sS'tail Noun'
p4120
S'10663'
p4121
sS'trash Noun'
p4122
S'5811'
p4123
sS'dimension Noun'
p4124
S'14965'
p4125
sS'persuade Verb'
p4126
S'8998'
p4127
sS'top Adjective'
p4128
S'41484'
p4129
sS'peel Verb'
p4130
S'7182'
p4131
sS'reveal Verb'
p4132
S'42605'
p4133
sS'structure Noun'
p4134
S'43638'
p4135
sS'remaining Adjective'
p4136
S'15992'
p4137
sS'associate Noun'
p4138
S'5860'
p4139
sS'general Noun'
p4140
S'11344'
p4141
sS'boring Adjective'
p4142
S'4922'
p4143
sS'sweater Noun'
p4144
S'5392'
p4145
sS'accounting Noun'
p4146
S'7319'
p4147
sS'journey Noun'
p4148
S'13599'
p4149
sS'magnitude Noun'
p4150
S'7115'
p4151
sS'politics Noun'
p4152
S'41758'
p4153
sS'bear Noun'
p4154
S'12194'
p4155
sS'United Adjective'
p4156
S'26396'
p4157
sS'retain Verb'
p4158
S'12041'
p4159
sS'high Adjective'
p4160
S'255936'
p4161
sS'shrink Verb'
p4162
S'5617'
p4163
sS'darkness Noun'
p4164
S'13275'
p4165
sS'section Noun'
p4166
S'49764'
p4167
sS'frequency Noun'
p4168
S'11284'
p4169
sS'motivate Verb'
p4170
S'8324'
p4171
sS'stress Noun'
p4172
S'21813'
p4173
sS'link Noun'
p4174
S'15738'
p4175
sS'request Verb'
p4176
S'9619'
p4177
sS'stake Noun'
p4178
S'12603'
p4179
sS'face Verb'
p4180
S'69493'
p4181
sS'bench Noun'
p4182
S'11666'
p4183
sS'value Noun'
p4184
S'82942'
p4185
sS'source Noun'
p4186
S'66862'
p4187
sS'assume Verb'
p4188
S'35960'
p4189
sS'teach Verb'
p4190
S'72668'
p4191
sS'indication Noun'
p4192
S'8715'
p4193
sS'forgive Verb'
p4194
S'8003'
p4195
sS'club Noun'
p4196
S'30800'
p4197
sS'deal Verb'
p4198
S'57462'
p4199
sS'parental Adjective'
p4200
S'7251'
p4201
sS'disturbing Adjective'
p4202
S'4990'
p4203
sS'French Noun'
p4204
S'9845'
p4205
sS'bias Noun'
p4206
S'7388'
p4207
sS'middle Noun'
p4208
S'30199'
p4209
sS'greatly Adverb'
p4210
S'8648'
p4211
sS'half Noun'
p4212
S'22029'
p4213
sS'spring Verb'
p4214
S'6689'
p4215
sS'platform Noun'
p4216
S'11209'
p4217
sS'branch Noun'
p4218
S'19633'
p4219
sS'even Adverb'
p4220
S'361067'
p4221
sS'profession Noun'
p4222
S'11469'
p4223
sS'rank Noun'
p4224
S'12236'
p4225
sS'insist Verb'
p4226
S'27205'
p4227
sS'primary Noun'
p4228
S'7823'
p4229
sS'plaintiff Noun'
p4230
S'5312'
p4231
sS'desperate Adjective'
p4232
S'9795'
p4233
sS'journalist Noun'
p4234
S'16858'
p4235
sS'story Noun'
p4236
S'163582'
p4237
sS'annual Adjective'
p4238
S'28471'
p4239
sS'headquarters Noun'
p4240
S'11135'
p4241
sS'old Adjective'
p4242
S'236577'
p4243
sS'administration Noun'
p4244
S'62071'
p4245
sS'order Noun'
p4246
S'56483'
p4247
sS'gain Verb'
p4248
S'30667'
p4249
sS'spectrum Noun'
p4250
S'7216'
p4251
sS'complexity Noun'
p4252
S'7813'
p4253
sS'already Adverb'
p4254
S'115220'
p4255
sS'stranger Noun'
p4256
S'12261'
p4257
sS'manual Noun'
p4258
S'5040'
p4259
sS'colonial Adjective'
p4260
S'9628'
p4261
sS'criticize Verb'
p4262
S'12906'
p4263
sS'disorder Noun'
p4264
S'14780'
p4265
sS'strict Adjective'
p4266
S'8013'
p4267
sS'resemble Verb'
p4268
S'10050'
p4269
sS'fraud Noun'
p4270
S'8176'
p4271
sS'hill Noun'
p4272
S'18131'
p4273
sS'innocent Adjective'
p4274
S'11530'
p4275
sS'show Noun'
p4276
S'86828'
p4277
sS'scent Noun'
p4278
S'6050'
p4279
sS'phone Noun'
p4280
S'71599'
p4281
sS'law Noun'
p4282
S'133706'
p4283
sS'surprise Verb'
p4284
S'10023'
p4285
sS'biography Noun'
p4286
S'5015'
p4287
sS'Israeli Noun'
p4288
S'7673'
p4289
sS'duty Noun'
p4290
S'20204'
p4291
sS'excited Adjective'
p4292
S'8491'
p4293
sS'baseball Noun'
p4294
S'28551'
p4295
sS'free Verb'
p4296
S'10898'
p4297
sS'sofa Noun'
p4298
S'5499'
p4299
sS'line Noun'
p4300
S'135986'
p4301
sS'historic Adjective'
p4302
S'13507'
p4303
sS'confuse Verb'
p4304
S'8045'
p4305
sS'super Adjective'
p4306
S'12586'
p4307
sS'fully Adverb'
p4308
S'24842'
p4309
sS'seemingly Adverb'
p4310
S'8010'
p4311
sS'impressive Adjective'
p4312
S'9100'
p4313
sS'allow Verb'
p4314
S'114892'
p4315
sS'merit Noun'
p4316
S'5670'
p4317
sS'ambassador Noun'
p4318
S'5847'
p4319
sS'portion Noun'
p4320
S'15677'
p4321
sS'occasionally Adverb'
p4322
S'13321'
p4323
sS'dry Verb'
p4324
S'9678'
p4325
sS'program Verb'
p4326
S'7015'
p4327
sS'brick Noun'
p4328
S'9069'
p4329
sS'intellectual Adjective'
p4330
S'11842'
p4331
sS'announcement Noun'
p4332
S'7863'
p4333
sS'ass Noun'
p4334
S'6911'
p4335
sS'reading Noun'
p4336
S'23919'
p4337
sS'advantage Noun'
p4338
S'29340'
p4339
sS'stroke Noun'
p4340
S'9891'
p4341
sS'location Noun'
p4342
S'26463'
p4343
sS'visual Adjective'
p4344
S'17316'
p4345
sS'just Adjective'
p4346
S'20096'
p4347
sS'rural Adjective'
p4348
S'18665'
p4349
sS'small Adjective'
p4350
S'185463'
p4351
sS'nose Noun'
p4352
S'21938'
p4353
sS'ecosystem Noun'
p4354
S'6215'
p4355
sS'honestly Adverb'
p4356
S'5042'
p4357
sS'placement Noun'
p4358
S'6275'
p4359
sS'poll Noun'
p4360
S'24009'
p4361
sS'exam Noun'
p4362
S'6176'
p4363
sS'given Adjective'
p4364
S'10622'
p4365
sS'engineer Noun'
p4366
S'17991'
p4367
sS'aid Noun'
p4368
S'22642'
p4369
sS'beautiful Adjective'
p4370
S'40052'
p4371
sS'inspire Verb'
p4372
S'14771'
p4373
sS'ideological Adjective'
p4374
S'6793'
p4375
sS'owner Noun'
p4376
S'39492'
p4377
sS'federal Adjective'
p4378
S'81826'
p4379
sS'smell Noun'
p4380
S'12123'
p4381
sS'roll Noun'
p4382
S'13053'
p4383
sS'flavor Noun'
p4384
S'10143'
p4385
sS'session Noun'
p4386
S'24010'
p4387
sS'document Verb'
p4388
S'9274'
p4389
sS'mathematics Noun'
p4390
S'6828'
p4391
sS'compel Verb'
p4392
S'5728'
p4393
sS'oil Noun'
p4394
S'74386'
p4395
sS'borrow Verb'
p4396
S'9150'
p4397
sS'winter Noun'
p4398
S'31227'
p4399
sS'major Adjective'
p4400
S'87487'
p4401
sS'withdraw Verb'
p4402
S'11352'
p4403
sS'poke Verb'
p4404
S'5575'
p4405
sS'modest Adjective'
p4406
S'9746'
p4407
sS'cartoon Noun'
p4408
S'6403'
p4409
sS'tuck Verb'
p4410
S'6847'
p4411
sS'activist Noun'
p4412
S'12737'
p4413
sS'fucking Adjective'
p4414
S'6472'
p4415
sS'immune Adjective'
p4416
S'6492'
p4417
sS'comparable Adjective'
p4418
S'5600'
p4419
sS'honor Verb'
p4420
S'11653'
p4421
sS'resistance Noun'
p4422
S'15686'
p4423
sS'contract Noun'
p4424
S'30906'
p4425
sS'code Noun'
p4426
S'22015'
p4427
sS'thin Adjective'
p4428
S'23194'
p4429
sS'dare Verb'
p4430
S'9033'
p4431
sS'formula Noun'
p4432
S'8965'
p4433
sS'variety Noun'
p4434
S'34242'
p4435
sS'far Adverb'
p4436
S'148621'
p4437
sS'ear Noun'
p4438
S'29597'
p4439
sS'inspection Noun'
p4440
S'8128'
p4441
sS'fatigue Noun'
p4442
S'5214'
p4443
sS'base Noun'
p4444
S'41154'
p4445
sS'delivery Noun'
p4446
S'11323'
p4447
sS'touch Noun'
p4448
S'14939'
p4449
sS'absorb Verb'
p4450
S'9762'
p4451
sS'dying Adjective'
p4452
S'5504'
p4453
sS'drink Noun'
p4454
S'18227'
p4455
sS'lightly Adverb'
p4456
S'8893'
p4457
sS'side Noun'
p4458
S'152559'
p4459
sS'engagement Noun'
p4460
S'7675'
p4461
sS'specific Adjective'
p4462
S'42397'
p4463
sS'morning Noun'
p4464
S'114002'
p4465
sS'isolated Adjective'
p4466
S'5482'
p4467
sS'somewhat Adverb'
p4468
S'18801'
p4469
sS'talent Noun'
p4470
S'17474'
p4471
sS'surface Noun'
p4472
S'39367'
p4473
sS'century Noun'
p4474
S'65667'
p4475
sS'back Verb'
p4476
S'19213'
p4477
sS'site Noun'
p4478
S'75932'
p4479
sS'veteran Noun'
p4480
S'14366'
p4481
sS'movement Noun'
p4482
S'56201'
p4483
sS'concede Verb'
p4484
S'6303'
p4485
sS'film Noun'
p4486
S'66724'
p4487
sS'satisfy Verb'
p4488
S'10194'
p4489
sS'grass Noun'
p4490
S'18139'
p4491
sS'mate Noun'
p4492
S'6693'
p4493
sS'statue Noun'
p4494
S'7058'
p4495
sS'chairman Noun'
p4496
S'28560'
p4497
sS'chef Noun'
p4498
S'10131'
p4499
sS'inform Verb'
p4500
S'15725'
p4501
sS'fluid Noun'
p4502
S'7464'
p4503
sS'twice Adverb'
p4504
S'26450'
p4505
sS'supposedly Adverb'
p4506
S'5451'
p4507
sS'sharply Adverb'
p4508
S'6966'
p4509
sS'swear Verb'
p4510
S'9181'
p4511
sS'cost Noun'
p4512
S'73512'
p4513
sS'meeting Noun'
p4514
S'49916'
p4515
sS'reduction Noun'
p4516
S'15862'
p4517
sS'present Verb'
p4518
S'49659'
p4519
sS'workout Noun'
p4520
S'6414'
p4521
sS'prosecution Noun'
p4522
S'8941'
p4523
sS'minimum Noun'
p4524
S'5867'
p4525
sS'pizza Noun'
p4526
S'7130'
p4527
sS'introduction Noun'
p4528
S'11483'
p4529
sS'invent Verb'
p4530
S'8461'
p4531
sS'focus Verb'
p4532
S'57177'
p4533
sS'mental Adjective'
p4534
S'23650'
p4535
sS'style Noun'
p4536
S'40889'
p4537
sS'glad Adjective'
p4538
S'15556'
p4539
sS'knowledge Noun'
p4540
S'50335'
p4541
sS'dark Adjective'
p4542
S'47565'
p4543
sS'classic Adjective'
p4544
S'12610'
p4545
sS'lobby Noun'
p4546
S'7556'
p4547
sS'serve Verb'
p4548
S'99660'
p4549
sS'pack Verb'
p4550
S'15169'
p4551
sS'house Verb'
p4552
S'12268'
p4553
sS'dealer Noun'
p4554
S'12999'
p4555
sS'substantially Adverb'
p4556
S'5344'
p4557
sS'American Adjective'
p4558
S'214968'
p4559
sS'record Noun'
p4560
S'77509'
p4561
sS'mainly Adverb'
p4562
S'11367'
p4563
sS'market Verb'
p4564
S'11650'
p4565
sS'confirm Verb'
p4566
S'19327'
p4567
sS'German Noun'
p4568
S'9586'
p4569
sS'deficit Noun'
p4570
S'15008'
p4571
sS'canvas Noun'
p4572
S'7795'
p4573
sS'laugh Verb'
p4574
S'48567'
p4575
sS'term Noun'
p4576
S'62962'
p4577
sS'solar Adjective'
p4578
S'12121'
p4579
sS'terror Noun'
p4580
S'12342'
p4581
sS'mechanical Adjective'
p4582
S'7835'
p4583
sS'should Verb'
p4584
S'310265'
p4585
sS'concept Noun'
p4586
S'35944'
p4587
sS'condition Noun'
p4588
S'63489'
p4589
sS'line Verb'
p4590
S'13373'
p4591
sS'fan Noun'
p4592
S'32919'
p4593
sS'dead Adjective'
p4594
S'55111'
p4595
sS'regularly Adverb'
p4596
S'11329'
p4597
sS'regard Noun'
p4598
S'5263'
p4599
sS'find Verb'
p4600
S'395203'
p4601
sS'junior Adjective'
p4602
S'13797'
p4603
sS'contact Verb'
p4604
S'15359'
p4605
sS'accurately Adverb'
p4606
S'5156'
p4607
sS'missionary Noun'
p4608
S'5438'
p4609
sS'terrible Adjective'
p4610
S'18659'
p4611
sS'counter Noun'
p4612
S'11676'
p4613
sS'Iraqi Adjective'
p4614
S'25446'
p4615
sS'distinct Adjective'
p4616
S'9682'
p4617
sS'light Noun'
p4618
S'87427'
p4619
sS'bottom Noun'
p4620
S'24653'
p4621
sS'humor Noun'
p4622
S'9654'
p4623
sS'eligible Adjective'
p4624
S'5529'
p4625
sS'African Adjective'
p4626
S'34557'
p4627
sS'liability Noun'
p4628
S'6775'
p4629
sS'surgeon Noun'
p4630
S'8519'
p4631
sS'sensor Noun'
p4632
S'5154'
p4633
sS'test Noun'
p4634
S'69870'
p4635
sS'lion Noun'
p4636
S'6075'
p4637
sS'miracle Noun'
p4638
S'8981'
p4639
sS'friendly Adjective'
p4640
S'11360'
p4641
sS'testimony Noun'
p4642
S'12679'
p4643
sS'neighbor Noun'
p4644
S'25497'
p4645
sS'railroad Noun'
p4646
S'7796'
p4647
sS'besides Adverb'
p4648
S'10537'
p4649
sS'chair Noun'
p4650
S'43256'
p4651
sS'automatic Adjective'
p4652
S'6580'
p4653
sS'pray Verb'
p4654
S'14006'
p4655
sS'evil Noun'
p4656
S'8391'
p4657
sS'swimming Noun'
p4658
S'5735'
p4659
sS'investigation Noun'
p4660
S'33849'
p4661
sS'across Adverb'
p4662
S'9825'
p4663
sS'earn Verb'
p4664
S'29560'
p4665
sS'flat Adjective'
p4666
S'12899'
p4667
sS'though Adverb'
p4668
S'12073'
p4669
sS'graduate Noun'
p4670
S'16803'
p4671
sS'need Verb'
p4672
S'276744'
p4673
sS'repeat Verb'
p4674
S'22622'
p4675
sS'involve Verb'
p4676
S'59542'
p4677
sS'deadly Adjective'
p4678
S'8196'
p4679
sS'jury Noun'
p4680
S'24072'
p4681
sS'Japanese Noun'
p4682
S'7419'
p4683
sS'isolation Noun'
p4684
S'6251'
p4685
sS'assign Verb'
p4686
S'12836'
p4687
sS'average Noun'
p4688
S'26568'
p4689
sS'guarantee Noun'
p4690
S'5205'
p4691
sS'outline Verb'
p4692
S'5859'
p4693
sS'precise Adjective'
p4694
S'7211'
p4695
sS'regain Verb'
p4696
S'5041'
p4697
sS'teacher Noun'
p4698
S'116100'
p4699
sS'detective Noun'
p4700
S'7441'
p4701
sS'feeling Noun'
p4702
S'47349'
p4703
sS'palm Noun'
p4704
S'11014'
p4705
sS'lake Noun'
p4706
S'15836'
p4707
sS'file Verb'
p4708
S'19416'
p4709
sS'processor Noun'
p4710
S'5882'
p4711
sS'act Noun'
p4712
S'34104'
p4713
sS'draft Noun'
p4714
S'12684'
p4715
sS'political Adjective'
p4716
S'144437'
p4717
sS'tomorrow Adverb'
p4718
S'30098'
p4719
sS'relevant Adjective'
p4720
S'12212'
p4721
sS'compensation Noun'
p4722
S'7512'
p4723
sS'unfortunately Adverb'
p4724
S'17482'
p4725
sS'house Noun'
p4726
S'149251'
p4727
sS'energy Noun'
p4728
S'64139'
p4729
sS'sheer Adjective'
p4730
S'6209'
p4731
sS'cage Noun'
p4732
S'6621'
p4733
sS'identical Adjective'
p4734
S'7247'
p4735
sS"o'clock Adverb"
p4736
S'6972'
p4737
sS'uncomfortable Adjective'
p4738
S'7667'
p4739
sS'neighborhood Noun'
p4740
S'34691'
p4741
sS'news Noun'
p4742
S'70051'
p4743
sS'threat Noun'
p4744
S'37022'
p4745
sS'bill Noun'
p4746
S'49011'
p4747
sS'dress Verb'
p4748
S'26669'
p4749
sS'inspector Noun'
p4750
S'8652'
p4751
sS'chocolate Noun'
p4752
S'12682'
p4753
sS'judgment Noun'
p4754
S'19315'
p4755
sS'reward Verb'
p4756
S'5676'
p4757
sS'brake Noun'
p4758
S'5522'
p4759
sS'forbid Verb'
p4760
S'5167'
p4761
sS'skirt Noun'
p4762
S'8167'
p4763
sS'flash Verb'
p4764
S'8815'
p4765
sS'tie Verb'
p4766
S'24408'
p4767
sS'leave Noun'
p4768
S'5087'
p4769
sS'ice Noun'
p4770
S'31686'
p4771
sS'read Verb'
p4772
S'114094'
p4773
sS'share Verb'
p4774
S'54010'
p4775
sS'boyfriend Noun'
p4776
S'8755'
p4777
sS'destroy Verb'
p4778
S'26177'
p4779
sS'overlook Verb'
p4780
S'9553'
p4781
sS'invention Noun'
p4782
S'5211'
p4783
sS'dining Noun'
p4784
S'10843'
p4785
sS'ideal Noun'
p4786
S'5978'
p4787
sS'reporter Noun'
p4788
S'30416'
p4789
sS'wake Noun'
p4790
S'6630'
p4791
sS'warn Verb'
p4792
S'19996'
p4793
sS'arrow Noun'
p4794
S'5208'
p4795
sS'destruction Noun'
p4796
S'12356'
p4797
sS'local Adjective'
p4798
S'92970'
p4799
sS'never Adverb'
p4800
S'262584'
p4801
sS'horizon Noun'
p4802
S'9857'
p4803
sS'function Noun'
p4804
S'28011'
p4805
sS'fall Verb'
p4806
S'96908'
p4807
sS'word Noun'
p4808
S'152891'
p4809
sS'garden Noun'
p4810
S'38800'
p4811
sS'host Noun'
p4812
S'19389'
p4813
sS'disc Noun'
p4814
S'5403'
p4815
sS'constantly Adverb'
p4816
S'13033'
p4817
sS'disaster Noun'
p4818
S'14684'
p4819
sS'interaction Noun'
p4820
S'19144'
p4821
sS'mansion Noun'
p4822
S'5233'
p4823
sS'seed Noun'
p4824
S'19079'
p4825
sS'drawing Noun'
p4826
S'13377'
p4827
sS'minimal Adjective'
p4828
S'6176'
p4829
sS'appreciate Verb'
p4830
S'20806'
p4831
sS'wipe Verb'
p4832
S'12435'
p4833
sS'apply Verb'
p4834
S'42391'
p4835
sS'childhood Noun'
p4836
S'16268'
p4837
sS'decrease Verb'
p4838
S'9291'
p4839
sS'above Adverb'
p4840
S'23866'
p4841
sS'activity Noun'
p4842
S'77980'
p4843
sS'strange Adjective'
p4844
S'23744'
p4845
sS'gather Verb'
p4846
S'27659'
p4847
sS'host Verb'
p4848
S'9750'
p4849
sS'nervous Adjective'
p4850
S'14100'
p4851
sS'Korean Adjective'
p4852
S'8441'
p4853
sS'far Adjective'
p4854
S'39967'
p4855
sS'written Adjective'
p4856
S'8371'
p4857
sS'demand Verb'
p4858
S'25207'
p4859
sS'individual Noun'
p4860
S'54738'
p4861
sS'evident Adjective'
p4862
S'8753'
p4863
sS'joint Adjective'
p4864
S'15444'
p4865
sS'spring Noun'
p4866
S'44085'
p4867
sS'holy Adjective'
p4868
S'14090'
p4869
sS'convince Verb'
p4870
S'16948'
p4871
sS'suburb Noun'
p4872
S'8249'
p4873
sS'Asian Adjective'
p4874
S'14873'
p4875
sS'training Noun'
p4876
S'49997'
p4877
sS'deck Noun'
p4878
S'11830'
p4879
sS'compromise Noun'
p4880
S'7469'
p4881
sS'flip Verb'
p4882
S'7274'
p4883
sS'assist Verb'
p4884
S'13748'
p4885
sS'moreover Adverb'
p4886
S'16163'
p4887
sS'homework Noun'
p4888
S'5093'
p4889
sS'soldier Noun'
p4890
S'39552'
p4891
sS'race Verb'
p4892
S'14233'
p4893
sS'revelation Noun'
p4894
S'6297'
p4895
sS'miss Verb'
p4896
S'46525'
p4897
sS'numerous Adjective'
p4898
S'15389'
p4899
sS'all Adverb'
p4900
S'177317'
p4901
sS'brown Adjective'
p4902
S'21175'
p4903
sS'successful Adjective'
p4904
S'35459'
p4905
sS'figure Verb'
p4906
S'36137'
p4907
sS'legislative Adjective'
p4908
S'8384'
p4909
sS'smart Adjective'
p4910
S'19370'
p4911
sS'slam Verb'
p4912
S'9076'
p4913
sS'apparent Adjective'
p4914
S'13434'
p4915
sS'elect Verb'
p4916
S'15350'
p4917
sS'publication Noun'
p4918
S'14045'
p4919
sS'incredible Adjective'
p4920
S'10342'
p4921
sS'menu Noun'
p4922
S'10238'
p4923
sS'hour Noun'
p4924
S'138955'
p4925
sS'good Adjective'
p4926
S'353973'
p4927
sS'white Noun'
p4928
S'11815'
p4929
sS'unhappy Adjective'
p4930
S'5162'
p4931
sS'radical Adjective'
p4932
S'10924'
p4933
sS'gradually Adverb'
p4934
S'10537'
p4935
sS'breathe Verb'
p4936
S'15813'
p4937
sS'toss Verb'
p4938
S'14565'
p4939
sS'avoid Verb'
p4940
S'42890'
p4941
sS'organization Noun'
p4942
S'67278'
p4943
sS'symptom Noun'
p4944
S'15886'
p4945
sS'hostile Adjective'
p4946
S'6319'
p4947
sS'alter Verb'
p4948
S'11106'
p4949
sS'soon Adverb'
p4950
S'63168'
p4951
sS'estimate Verb'
p4952
S'20474'
p4953
sS'beg Verb'
p4954
S'8542'
p4955
sS'paint Noun'
p4956
S'12673'
p4957
sS'genuine Adjective'
p4958
S'7336'
p4959
sS'inherit Verb'
p4960
S'5563'
p4961
sS'closest Adjective'
p4962
S'5506'
p4963
sS'reaction Noun'
p4964
S'26771'
p4965
sS'constitutional Adjective'
p4966
S'12567'
p4967
sS'basket Noun'
p4968
S'9316'
p4969
sS'assignment Noun'
p4970
S'9874'
p4971
sS'scared Adjective'
p4972
S'10752'
p4973
sS'intact Adjective'
p4974
S'5350'
p4975
sS'landscape Noun'
p4976
S'20171'
p4977
sS'people Noun'
p4978
S'691468'
p4979
sS'throw Verb'
p4980
S'57784'
p4981
sS'apparently Adverb'
p4982
S'26513'
p4983
sS'distract Verb'
p4984
S'5720'
p4985
sS'controversial Adjective'
p4986
S'9918'
p4987
sS'information Noun'
p4988
S'127331'
p4989
sS'achievement Noun'
p4990
S'18998'
p4991
sS'elsewhere Adverb'
p4992
S'14884'
p4993
sS'earth Noun'
p4994
S'21350'
p4995
sS'implication Noun'
p4996
S'14791'
p4997
sS'propose Verb'
p4998
S'21691'
p4999
sS'invasion Noun'
p5000
S'9412'
p5001
sS'proper Adjective'
p5002
S'17024'
p5003
sS'chew Verb'
p5004
S'5669'
p5005
sS'brain Noun'
p5006
S'32852'
p5007
sS'partial Adjective'
p5008
S'5716'
p5009
sS'rock Verb'
p5010
S'6473'
p5011
sS'province Noun'
p5012
S'9491'
p5013
sS'egg Noun'
p5014
S'27917'
p5015
sS'movie Noun'
p5016
S'69387'
p5017
sS'fog Noun'
p5018
S'5186'
p5019
sS'guide Noun'
p5020
S'20646'
p5021
sS'organizational Adjective'
p5022
S'6445'
p5023
sS'look Noun'
p5024
S'66194'
p5025
sS'depth Noun'
p5026
S'12927'
p5027
sS'completely Adverb'
p5028
S'32550'
p5029
sS'phenomenon Noun'
p5030
S'14087'
p5031
sS'translation Noun'
p5032
S'6266'
p5033
sS'gentleman Noun'
p5034
S'14648'
p5035
sS'debris Noun'
p5036
S'5491'
p5037
sS'rocket Noun'
p5038
S'6722'
p5039
sS'rolling Adjective'
p5040
S'6066'
p5041
sS'prison Noun'
p5042
S'30248'
p5043
sS'musical Adjective'
p5044
S'16931'
p5045
sS'brother Noun'
p5046
S'63406'
p5047
sS'surprised Adjective'
p5048
S'18822'
p5049
sS'shirt Noun'
p5050
S'21486'
p5051
sS'due Adjective'
p5052
S'13252'
p5053
sS'doubt Verb'
p5054
S'10352'
p5055
sS'count Noun'
p5056
S'13007'
p5057
sS'chamber Noun'
p5058
S'12034'
p5059
sS'coming Adjective'
p5060
S'5181'
p5061
sS'wolf Noun'
p5062
S'6718'
p5063
sS'tackle Verb'
p5064
S'6644'
p5065
sS'bottle Noun'
p5066
S'21569'
p5067
sS'gray Adjective'
p5068
S'19408'
p5069
sS'rack Noun'
p5070
S'6677'
p5071
sS'wonder Verb'
p5072
S'50875'
p5073
sS'maybe Adverb'
p5074
S'108421'
p5075
sS'youth Noun'
p5076
S'27755'
p5077
sS'sharp Adjective'
p5078
S'17403'
p5079
sS'agent Noun'
p5080
S'38265'
p5081
sS'vital Adjective'
p5082
S'10866'
p5083
sS'mutual Adjective'
p5084
S'11566'
p5085
sS'smooth Adjective'
p5086
S'14148'
p5087
sS'disappointment Noun'
p5088
S'5464'
p5089
sS'offense Noun'
p5090
S'11680'
p5091
sS'protest Noun'
p5092
S'11181'
p5093
sS'fortune Noun'
p5094
S'11815'
p5095
sS'intelligence Noun'
p5096
S'27555'
p5097
sS'industry Noun'
p5098
S'73055'
p5099
sS'bit Adverb'
p5100
S'32087'
p5101
sS'transfer Noun'
p5102
S'11830'
p5103
sS'added Adjective'
p5104
S'5616'
p5105
sS'certainly Adverb'
p5106
S'59739'
p5107
sS'desperately Adverb'
p5108
S'5701'
p5109
sS'regulation Noun'
p5110
S'22479'
p5111
sS'protection Noun'
p5112
S'29336'
p5113
sS'fight Verb'
p5114
S'56886'
p5115
sS'consideration Noun'
p5116
S'14047'
p5117
sS'extensive Adjective'
p5118
S'11580'
p5119
sS'version Noun'
p5120
S'34456'
p5121
sS'fair Adjective'
p5122
S'25064'
p5123
sS'shine Verb'
p5124
S'8984'
p5125
sS'regulatory Adjective'
p5126
S'7274'
p5127
sS'green Noun'
p5128
S'16776'
p5129
sS'force Verb'
p5130
S'44931'
p5131
sS'helmet Noun'
p5132
S'6203'
p5133
sS'option Noun'
p5134
S'35434'
p5135
sS'biology Noun'
p5136
S'6334'
p5137
sS'segment Noun'
p5138
S'10850'
p5139
sS'flour Noun'
p5140
S'9103'
p5141
sS'spending Noun'
p5142
S'14965'
p5143
sS'like Adverb'
p5144
S'13238'
p5145
sS'decade Noun'
p5146
S'53727'
p5147
sS'Latin Adjective'
p5148
S'13797'
p5149
sS'ask Verb'
p5150
S'284632'
p5151
sS'bounce Verb'
p5152
S'7451'
p5153
sS'sleep Noun'
p5154
S'17882'
p5155
sS'rub Verb'
p5156
S'11695'
p5157
sS'chip Noun'
p5158
S'16162'
p5159
sS'wave Noun'
p5160
S'26844'
p5161
sS'way Noun'
p5162
S'470401'
p5163
sS'like Verb'
p5164
S'182341'
p5165
sS'rose Noun'
p5166
S'8988'
p5167
sS'just Adverb'
p5168
S'677711'
p5169
sS'sell Verb'
p5170
S'87865'
p5171
sS'married Adjective'
p5172
S'22352'
p5173
sS'heavily Adverb'
p5174
S'13964'
p5175
sS'abuse Verb'
p5176
S'7554'
p5177
sS'directly Adverb'
p5178
S'34090'
p5179
sS'math Noun'
p5180
S'10430'
p5181
sS'launch Noun'
p5182
S'5080'
p5183
sS'while Noun'
p5184
S'29579'
p5185
sS'sunny Adjective'
p5186
S'5117'
p5187
sS'mud Noun'
p5188
S'8026'
p5189
sS'storm Noun'
p5190
S'22562'
p5191
sS'unique Adjective'
p5192
S'21436'
p5193
sS'operator Noun'
p5194
S'9351'
p5195
sS'ocean Noun'
p5196
S'19421'
p5197
sS'admit Verb'
p5198
S'35143'
p5199
sS'representative Adjective'
p5200
S'7008'
p5201
sS'projection Noun'
p5202
S'5288'
p5203
sS'management Noun'
p5204
S'45112'
p5205
sS'socially Adverb'
p5206
S'5814'
p5207
sS'guest Noun'
p5208
S'29328'
p5209
sS'hurry Verb'
p5210
S'8723'
p5211
sS'one Noun'
p5212
S'45596'
p5213
sS'whenever Adverb'
p5214
S'14484'
p5215
sS'ash Noun'
p5216
S'5647'
p5217
sS'rescue Verb'
p5218
S'7187'
p5219
sS'largely Adverb'
p5220
S'22097'
p5221
sS'underlying Adjective'
p5222
S'6340'
p5223
sS'bulb Noun'
p5224
S'5157'
p5225
sS'organism Noun'
p5226
S'6210'
p5227
sS'foot Noun'
p5228
S'107285'
p5229
sS'ecological Adjective'
p5230
S'6443'
p5231
sS'bath Noun'
p5232
S'7149'
p5233
sS'appeal Verb'
p5234
S'10745'
p5235
sS'fever Noun'
p5236
S'5874'
p5237
sS'hang Verb'
p5238
S'46632'
p5239
sS'airport Noun'
p5240
S'20897'
p5241
sS'love Noun'
p5242
S'67495'
p5243
sS'gesture Noun'
p5244
S'10739'
p5245
sS'naked Adjective'
p5246
S'9897'
p5247
sS'east Noun'
p5248
S'53010'
p5249
sS'hat Noun'
p5250
S'18198'
p5251
sS'grain Noun'
p5252
S'9520'
p5253
sS'housing Noun'
p5254
S'16403'
p5255
sS'slavery Noun'
p5256
S'5712'
p5257
sS'well-known Adjective'
p5258
S'5782'
p5259
sS'reform Noun'
p5260
S'36103'
p5261
sS'cease Verb'
p5262
S'5679'
p5263
sS'theme Noun'
p5264
S'22494'
p5265
sS'lover Noun'
p5266
S'11499'
p5267
sS'boast Verb'
p5268
S'5731'
p5269
sS'northwest Noun'
p5270
S'8650'
p5271
sS'shadow Noun'
p5272
S'22803'
p5273
sS'cheat Verb'
p5274
S'5819'
p5275
sS'party Noun'
p5276
S'112962'
p5277
sS'sink Verb'
p5278
S'11592'
p5279
sS'label Noun'
p5280
S'12497'
p5281
sS'smile Verb'
p5282
S'41473'
p5283
sS'pause Noun'
p5284
S'8140'
p5285
sS'limit Noun'
p5286
S'21714'
p5287
sS'flow Noun'
p5288
S'18469'
p5289
sS'hold Verb'
p5290
S'177368'
p5291
sS'hallway Noun'
p5292
S'8717'
p5293
sS'particular Adverb'
p5294
S'13259'
p5295
sS'skill Noun'
p5296
S'50431'
p5297
sS'evaluation Noun'
p5298
S'16213'
p5299
sS'collection Noun'
p5300
S'38431'
p5301
sS'explore Verb'
p5302
S'23744'
p5303
sS'consume Verb'
p5304
S'10308'
p5305
sS'bold Adjective'
p5306
S'6936'
p5307
sS'experiment Noun'
p5308
S'18440'
p5309
sS'equally Adverb'
p5310
S'14389'
p5311
sS'poverty Noun'
p5312
S'14891'
p5313
sS'bird Noun'
p5314
S'34835'
p5315
sS'hug Verb'
p5316
S'7478'
p5317
sS'excuse Verb'
p5318
S'8722'
p5319
sS'conversation Noun'
p5320
S'33046'
p5321
sS'pound Noun'
p5322
S'29946'
p5323
sS'consciousness Noun'
p5324
S'9758'
p5325
sS'conversion Noun'
p5326
S'5627'
p5327
sS'title Noun'
p5328
S'29210'
p5329
sS'move Noun'
p5330
S'26717'
p5331
sS'match Verb'
p5332
S'17788'
p5333
sS'survey Verb'
p5334
S'7556'
p5335
sS'stage Noun'
p5336
S'46346'
p5337
sS'elite Noun'
p5338
S'12329'
p5339
sS'describe Verb'
p5340
S'71377'
p5341
sS'important Adjective'
p5342
S'144194'
p5343
sS'quality Noun'
p5344
S'52224'
p5345
sS'indicate Verb'
p5346
S'53215'
p5347
sS'custody Noun'
p5348
S'5957'
p5349
sS'parking Noun'
p5350
S'14970'
p5351
sS'career Noun'
p5352
S'52101'
p5353
sS'image Noun'
p5354
S'72216'
p5355
sS'topic Noun'
p5356
S'20640'
p5357
sS'serious Adjective'
p5358
S'50285'
p5359
sS'fighting Noun'
p5360
S'9274'
p5361
sS'transport Noun'
p5362
S'5313'
p5363
sS'music Noun'
p5364
S'102657'
p5365
sS'pass Verb'
p5366
S'86184'
p5367
sS'preparation Noun'
p5368
S'13553'
p5369
sS'suspicious Adjective'
p5370
S'5412'
p5371
sS'acceptable Adjective'
p5372
S'8723'
p5373
sS'analyze Verb'
p5374
S'15587'
p5375
sS'bull Noun'
p5376
S'6346'
p5377
sS'straw Noun'
p5378
S'5297'
p5379
sS'willing Adjective'
p5380
S'29635'
p5381
sS'can Noun'
p5382
S'10718'
p5383
sS'earthquake Noun'
p5384
S'6439'
p5385
sS'decline Verb'
p5386
S'18058'
p5387
sS'carve Verb'
p5388
S'7294'
p5389
sS'business Noun'
p5390
S'154468'
p5391
sS'swell Verb'
p5392
S'5125'
p5393
sS'contest Noun'
p5394
S'10002'
p5395
sS'cooperation Noun'
p5396
S'12833'
p5397
sS'benefit Noun'
p5398
S'48594'
p5399
sS'educator Noun'
p5400
S'15447'
p5401
sS'commit Verb'
p5402
S'26943'
p5403
sS'supermarket Noun'
p5404
S'5389'
p5405
sS'coordinate Verb'
p5406
S'5152'
p5407
sS'direct Adjective'
p5408
S'26008'
p5409
sS'scandal Noun'
p5410
S'10403'
p5411
sS'icon Noun'
p5412
S'6030'
p5413
sS'machine Noun'
p5414
S'38407'
p5415
sS'say Verb'
p5416
S'1915138'
p5417
sS'educational Adjective'
p5418
S'25282'
p5419
sS'answer Verb'
p5420
S'47661'
p5421
sS'survey Noun'
p5422
S'32784'
p5423
sS'pretty Adverb'
p5424
S'50385'
p5425
sS'self Noun'
p5426
S'16708'
p5427
sS'comfortable Adjective'
p5428
S'21101'
p5429
sS'strategy Noun'
p5430
S'49126'
p5431
sS'overall Adverb'
p5432
S'7225'
p5433
sS'note Noun'
p5434
S'44720'
p5435
sS'damn Adjective'
p5436
S'6269'
p5437
sS'modern Adjective'
p5438
S'38372'
p5439
sS'fire Noun'
p5440
S'59386'
p5441
sS'straight Adverb'
p5442
S'22929'
p5443
sS'bloody Adjective'
p5444
S'6513'
p5445
sS'melt Verb'
p5446
S'8533'
p5447
sS'specialty Noun'
p5448
S'5622'
p5449
sS'variable Noun'
p5450
S'22868'
p5451
sS'extremely Adverb'
p5452
S'20310'
p5453
sS'observer Noun'
p5454
S'13806'
p5455
sS'traveler Noun'
p5456
S'7336'
p5457
sS'interior Noun'
p5458
S'8370'
p5459
sS'base Verb'
p5460
S'75887'
p5461
sS'teammate Noun'
p5462
S'6572'
p5463
sS'wish Noun'
p5464
S'7789'
p5465
sS'scatter Verb'
p5466
S'7461'
p5467
sS'programming Noun'
p5468
S'5507'
p5469
sS'nonprofit Adjective'
p5470
S'7482'
p5471
sS'presumably Adverb'
p5472
S'6039'
p5473
sS'beyond Adverb'
p5474
S'5036'
p5475
sS'boost Verb'
p5476
S'7863'
p5477
sS'discourage Verb'
p5478
S'6177'
p5479
sS'depict Verb'
p5480
S'9721'
p5481
sS'substance Noun'
p5482
S'15909'
p5483
sS'equation Noun'
p5484
S'7372'
p5485
sS'retirement Noun'
p5486
S'13964'
p5487
sS'protocol Noun'
p5488
S'6031'
p5489
sS'spy Noun'
p5490
S'5076'
p5491
sS'object Verb'
p5492
S'5909'
p5493
sS'suffering Noun'
p5494
S'6955'
p5495
sS'thinking Noun'
p5496
S'21663'
p5497
sS'photo Noun'
p5498
S'25492'
p5499
sS'crucial Adjective'
p5500
S'14234'
p5501
sS'lower Verb'
p5502
S'17206'
p5503
sS'combination Noun'
p5504
S'20026'
p5505
sS'permanent Adjective'
p5506
S'13390'
p5507
sS'director Noun'
p5508
S'79813'
p5509
sS'OK Adjective'
p5510
S'10733'
p5511
sS'sense Noun'
p5512
S'95896'
p5513
sS'recognize Verb'
p5514
S'50042'
p5515
sS'off Adverb'
p5516
S'183854'
p5517
sS'warmth Noun'
p5518
S'5383'
p5519
sS'availability Noun'
p5520
S'5519'
p5521
sS'flame Noun'
p5522
S'9716'
p5523
sS'physical Adjective'
p5524
S'51451'
p5525
sS'rain Noun'
p5526
S'24134'
p5527
sS'low Adjective'
p5528
S'108990'
p5529
sS'colorful Adjective'
p5530
S'5773'
p5531
sS'boil Verb'
p5532
S'6180'
p5533
sS'bomb Noun'
p5534
S'18284'
p5535
sS'ugly Adjective'
p5536
S'9267'
p5537
sS'devote Verb'
p5538
S'9326'
p5539
sS'release Verb'
p5540
S'34301'
p5541
sS'royal Adjective'
p5542
S'6028'
p5543
sS'economically Adverb'
p5544
S'5169'
p5545
sS'objection Noun'
p5546
S'5276'
p5547
sS'through Adverb'
p5548
S'31838'
p5549
sS'however Adverb'
p5550
S'142282'
p5551
sS'lemon Noun'
p5552
S'10095'
p5553
sS'equipment Noun'
p5554
S'28023'
p5555
sS'various Adjective'
p5556
S'46777'
p5557
sS'separate Adjective'
p5558
S'19064'
p5559
sS'suitable Adjective'
p5560
S'5291'
p5561
sS'professional Noun'
p5562
S'13402'
p5563
sS'starter Noun'
p5564
S'7487'
p5565
sS'succeed Verb'
p5566
S'17423'
p5567
sS'pull Verb'
p5568
S'87243'
p5569
sS'entrepreneur Noun'
p5570
S'6238'
p5571
sS'prosecutor Noun'
p5572
S'17260'
p5573
sS'individual Adjective'
p5574
S'42325'
p5575
sS'lean Verb'
p5576
S'26896'
p5577
sS'mechanic Noun'
p5578
S'6092'
p5579
sS'trace Noun'
p5580
S'6345'
p5581
sS'facilitate Verb'
p5582
S'8946'
p5583
sS'rent Verb'
p5584
S'8446'
p5585
sS'upset Verb'
p5586
S'8570'
p5587
sS'Dutch Adjective'
p5588
S'6690'
p5589
sS'react Verb'
p5590
S'11874'
p5591
sS'improve Verb'
p5592
S'40214'
p5593
sS'sale Noun'
p5594
S'15351'
p5595
sS'swing Noun'
p5596
S'9214'
p5597
sS'escape Noun'
p5598
S'6358'
p5599
sS'majority Noun'
p5600
S'36758'
p5601
sS'transit Noun'
p5602
S'5226'
p5603
sS'widespread Adjective'
p5604
S'9319'
p5605
sS'apologize Verb'
p5606
S'7485'
p5607
sS'drinking Noun'
p5608
S'8446'
p5609
sS'denial Noun'
p5610
S'5207'
p5611
sS'aluminum Noun'
p5612
S'6468'
p5613
sS'conclusion Noun'
p5614
S'23034'
p5615
sS'ceremony Noun'
p5616
S'11923'
p5617
sS'illusion Noun'
p5618
S'6035'
p5619
sS'still Adjective'
p5620
S'14308'
p5621
sS'joke Noun'
p5622
S'15284'
p5623
sS'reception Noun'
p5624
S'6896'
p5625
sS'scream Verb'
p5626
S'17342'
p5627
sS'fisherman Noun'
p5628
S'6317'
p5629
sS'portfolio Noun'
p5630
S'7663'
p5631
sS'acid Noun'
p5632
S'9772'
p5633
sS'preliminary Adjective'
p5634
S'5908'
p5635
sS'picture Verb'
p5636
S'7103'
p5637
sS'oversee Verb'
p5638
S'6773'
p5639
sS'milk Noun'
p5640
S'17812'
p5641
sS'proposal Noun'
p5642
S'22830'
p5643
sS'damage Noun'
p5644
S'24155'
p5645
sS'always Adverb'
p5646
S'179474'
p5647
sS'controversy Noun'
p5648
S'11054'
p5649
sS'much Adverb'
p5650
S'126029'
p5651
sS'accomplish Verb'
p5652
S'14325'
p5653
sS'therefore Adverb'
p5654
S'35842'
p5655
sS'realize Verb'
p5656
S'61732'
p5657
sS'interpretation Noun'
p5658
S'15613'
p5659
sS'secretary Noun'
p5660
S'17922'
p5661
sS'bubble Noun'
p5662
S'6570'
p5663
sS'intellectual Noun'
p5664
S'5773'
p5665
sS'Russian Noun'
p5666
S'6891'
p5667
sS'strip Noun'
p5668
S'11543'
p5669
sS'aunt Noun'
p5670
S'6662'
p5671
sS'pill Noun'
p5672
S'8537'
p5673
sS'jurisdiction Noun'
p5674
S'5691'
p5675
sS'exhibit Noun'
p5676
S'7326'
p5677
sS'excellent Adjective'
p5678
S'16094'
p5679
sS'soup Noun'
p5680
S'10571'
p5681
sS'shortly Adverb'
p5682
S'10864'
p5683
sS'mirror Noun'
p5684
S'20081'
p5685
sS'endure Verb'
p5686
S'7586'
p5687
sS'blank Adjective'
p5688
S'5585'
p5689
sS'likely Adverb'
p5690
S'11551'
p5691
sS'cop Noun'
p5692
S'16228'
p5693
sS'estate Noun'
p5694
S'20673'
p5695
sS'full Adjective'
p5696
S'77547'
p5697
sS'tear Noun'
p5698
S'19819'
p5699
sS'complicated Adjective'
p5700
S'11306'
p5701
sS'acceptance Noun'
p5702
S'8870'
p5703
sS'experience Noun'
p5704
S'98106'
p5705
sS'frozen Adjective'
p5706
S'7474'
p5707
sS'search Noun'
p5708
S'27087'
p5709
sS'stimulate Verb'
p5710
S'5898'
p5711
sS'burden Noun'
p5712
S'12054'
p5713
sS'fairly Adverb'
p5714
S'15701'
p5715
sS'input Noun'
p5716
S'7004'
p5717
sS'tube Noun'
p5718
S'13364'
p5719
sS'cheer Verb'
p5720
S'5442'
p5721
sS'reply Verb'
p5722
S'16312'
p5723
sS'clip Noun'
p5724
S'6660'
p5725
sS'conference Noun'
p5726
S'40643'
p5727
sS'calm Adjective'
p5728
S'5309'
p5729
sS'bathroom Noun'
p5730
S'14725'
p5731
sS'state Noun'
p5732
S'272193'
p5733
sS'importance Noun'
p5734
S'24946'
p5735
sS'ability Noun'
p5736
S'51476'
p5737
sS'horror Noun'
p5738
S'8875'
p5739
sS'evening Noun'
p5740
S'40881'
p5741
sS'road Noun'
p5742
S'80987'
p5743
sS'fool Noun'
p5744
S'6990'
p5745
sS'accommodate Verb'
p5746
S'7571'
p5747
sS'competitor Noun'
p5748
S'9377'
p5749
sS'again Adverb'
p5750
S'206895'
p5751
sS'decent Adjective'
p5752
S'6954'
p5753
sS'purpose Noun'
p5754
S'40084'
p5755
sS'pile Noun'
p5756
S'10594'
p5757
sS'equip Verb'
p5758
S'6436'
p5759
sS'suffer Verb'
p5760
S'34675'
p5761
sS'away Adverb'
p5762
S'144713'
p5763
sS'Christianity Noun'
p5764
S'6312'
p5765
sS'suit Verb'
p5766
S'9477'
p5767
sS'mixed Adjective'
p5768
S'6327'
p5769
sS'automobile Noun'
p5770
S'6829'
p5771
sS'square Noun'
p5772
S'8906'
p5773
sS'barrier Noun'
p5774
S'12772'
p5775
sS'liquid Adjective'
p5776
S'5265'
p5777
sS'Indian Adjective'
p5778
S'27100'
p5779
sS'noon Noun'
p5780
S'7425'
p5781
sS'mouse Noun'
p5782
S'9449'
p5783
sS'actual Adjective'
p5784
S'21321'
p5785
sS'promising Adjective'
p5786
S'7075'
p5787
sS'found Verb'
p5788
S'12376'
p5789
sS'appreciation Noun'
p5790
S'6054'
p5791
sS'practical Adjective'
p5792
S'15303'
p5793
sS'will Noun'
p5794
S'24351'
p5795
sS'disease Noun'
p5796
S'51211'
p5797
sS'habit Noun'
p5798
S'14501'
p5799
sS'pump Verb'
p5800
S'6765'
p5801
sS'diversity Noun'
p5802
S'13872'
p5803
sS'in Adverb'
p5804
S'285035'
p5805
sS'ministry Noun'
p5806
S'6250'
p5807
sS'change Noun'
p5808
S'112426'
p5809
sS'wonderful Adjective'
p5810
S'27494'
p5811
sS'effective Adjective'
p5812
S'35851'
p5813
sS'offering Noun'
p5814
S'6856'
p5815
sS'camp Noun'
p5816
S'32659'
p5817
sS'establishment Noun'
p5818
S'11355'
p5819
sS'eating Noun'
p5820
S'7067'
p5821
sS'alarm Noun'
p5822
S'7631'
p5823
sS'walk Noun'
p5824
S'15632'
p5825
sS'oppose Verb'
p5826
S'18484'
p5827
sS'long-term Adjective'
p5828
S'20841'
p5829
sS'smoke Verb'
p5830
S'13438'
p5831
sS'respect Noun'
p5832
S'23274'
p5833
sS'attempt Noun'
p5834
S'31944'
p5835
sS'unfair Adjective'
p5836
S'5656'
p5837
sS'piano Noun'
p5838
S'8968'
p5839
sS'abuse Noun'
p5840
S'24534'
p5841
sS'scare Verb'
p5842
S'7367'
p5843
sS'allegedly Adverb'
p5844
S'5451'
p5845
sS'mayor Noun'
p5846
S'13903'
p5847
sS'prisoner Noun'
p5848
S'13928'
p5849
sS'donor Noun'
p5850
S'7231'
p5851
sS'feather Noun'
p5852
S'5744'
p5853
sS'conservative Adjective'
p5854
S'19778'
p5855
sS'plea Noun'
p5856
S'5000'
p5857
sS'oxygen Noun'
p5858
S'7191'
p5859
sS'execute Verb'
p5860
S'7671'
p5861
sS'notice Verb'
p5862
S'38910'
p5863
sS'differently Adverb'
p5864
S'9565'
p5865
sS'stick Verb'
p5866
S'32259'
p5867
sS'downtown Adjective'
p5868
S'10172'
p5869
sS'globe Noun'
p5870
S'5166'
p5871
sS'leader Noun'
p5872
S'85438'
p5873
sS'tumor Noun'
p5874
S'6427'
p5875
sS'lucky Adjective'
p5876
S'16550'
p5877
sS'rifle Noun'
p5878
S'10204'
p5879
sS'ancient Adjective'
p5880
S'19818'
p5881
sS'elegant Adjective'
p5882
S'6974'
p5883
sS'personality Noun'
p5884
S'16933'
p5885
sS'patience Noun'
p5886
S'6532'
p5887
sS'nod Verb'
p5888
S'27283'
p5889
sS'urge Verb'
p5890
S'14894'
p5891
sS'participation Noun'
p5892
S'17187'
p5893
sS'accept Verb'
p5894
S'49952'
p5895
sS'explicit Adjective'
p5896
S'5461'
p5897
sS'literature Noun'
p5898
S'26254'
p5899
sS'improvement Noun'
p5900
S'18977'
p5901
sS'transform Verb'
p5902
S'15815'
p5903
sS'necessary Adjective'
p5904
S'40776'
p5905
sS'historically Adverb'
p5906
S'7426'
p5907
sS'technology Noun'
p5908
S'69565'
p5909
sS'biological Adjective'
p5910
S'13233'
p5911
sS'blow Noun'
p5912
S'7324'
p5913
sS'box Noun'
p5914
S'49667'
p5915
sS'mark Verb'
p5916
S'21236'
p5917
sS'tell Verb'
p5918
S'388155'
p5919
sS'slowly Adverb'
p5920
S'33403'
p5921
sS'have Verb'
p5922
S'4303955'
p5923
sS'twist Noun'
p5924
S'5060'
p5925
sS'commitment Noun'
p5926
S'23152'
p5927
sS'statement Noun'
p5928
S'42941'
p5929
sS'remove Verb'
p5930
S'44683'
p5931
sS'bad Adjective'
p5932
S'134910'
p5933
sS'dirty Adjective'
p5934
S'11112'
p5935
sS'cry Verb'
p5936
S'29690'
p5937
sS'murder Verb'
p5938
S'8462'
p5939
sS'fence Noun'
p5940
S'12390'
p5941
sS'wound Verb'
p5942
S'5660'
p5943
sS'distribution Noun'
p5944
S'15249'
p5945
sS'heaven Noun'
p5946
S'12461'
p5947
sS'fold Verb'
p5948
S'8630'
p5949
sS'content Adjective'
p5950
S'7113'
p5951
sS'pitch Noun'
p5952
S'9586'
p5953
sS'worry Noun'
p5954
S'6811'
p5955
sS'sweat Noun'
p5956
S'8036'
p5957
sS'kid Noun'
p5958
S'126428'
p5959
sS'operating Noun'
p5960
S'9480'
p5961
sS'elbow Noun'
p5962
S'8536'
p5963
sS'ankle Noun'
p5964
S'7397'
p5965
sS'lose Verb'
p5966
S'134102'
p5967
sS'enroll Verb'
p5968
S'7053'
p5969
sS'glory Noun'
p5970
S'6443'
p5971
sS'official Noun'
p5972
S'79026'
p5973
sS'nut Noun'
p5974
S'9605'
p5975
sS'doll Noun'
p5976
S'7351'
p5977
sS'hunting Noun'
p5978
S'12100'
p5979
sS'criminal Adjective'
p5980
S'18424'
p5981
sS'pie Noun'
p5982
S'9019'
p5983
sS'instantly Adverb'
p5984
S'6476'
p5985
sS'send Verb'
p5986
S'96613'
p5987
sS'initiate Verb'
p5988
S'8630'
p5989
sS'being Noun'
p5990
S'21695'
p5991
sS'rabbit Noun'
p5992
S'6095'
p5993
sS'salary Noun'
p5994
S'13885'
p5995
sS'stretch Verb'
p5996
S'19014'
p5997
sS'observe Verb'
p5998
S'30737'
p5999
sS'break Noun'
p6000
S'40348'
p6001
sS'band Noun'
p6002
S'29769'
p6003
sS'expansion Noun'
p6004
S'12054'
p6005
sS'submit Verb'
p6006
S'9507'
p6007
sS'Japanese Adjective'
p6008
S'21800'
p6009
sS'assemble Verb'
p6010
S'7996'
p6011
sS'elementary Adjective'
p6012
S'13831'
p6013
sS'consider Verb'
p6014
S'101987'
p6015
sS'phrase Noun'
p6016
S'12558'
p6017
sS'Islam Noun'
p6018
S'8755'
p6019
sS'garbage Noun'
p6020
S'6933'
p6021
sS'poem Noun'
p6022
S'13702'
p6023
sS'alone Adverb'
p6024
S'34982'
p6025
sS'supply Noun'
p6026
S'24920'
p6027
sS'continued Adjective'
p6028
S'9402'
p6029
sS'trunk Noun'
p6030
S'8400'
p6031
sS'correlation Noun'
p6032
S'9584'
p6033
sS'outlet Noun'
p6034
S'5497'
p6035
sS'interval Noun'
p6036
S'5708'
p6037
sS'contractor Noun'
p6038
S'7634'
p6039
sS'short Adverb'
p6040
S'7495'
p6041
sS'autonomy Noun'
p6042
S'5849'
p6043
sS'drain Verb'
p6044
S'8123'
p6045
sS'clue Noun'
p6046
S'8732'
p6047
sS'depression Noun'
p6048
S'16976'
p6049
sS'ingredient Noun'
p6050
S'13382'
p6051
sS'fly Noun'
p6052
S'9689'
p6053
sS'threaten Verb'
p6054
S'26587'
p6055
sS'hint Noun'
p6056
S'6951'
p6057
sS'rear Adjective'
p6058
S'6910'
p6059
sS'view Verb'
p6060
S'27258'
p6061
sS'grape Noun'
p6062
S'5318'
p6063
sS'corporation Noun'
p6064
S'12612'
p6065
sS'mine Noun'
p6066
S'12824'
p6067
sS'reserve Noun'
p6068
S'7585'
p6069
sS'opera Noun'
p6070
S'7332'
p6071
sS'particular Adjective'
p6072
S'42291'
p6073
sS'female Adjective'
p6074
S'27952'
p6075
sS'workplace Noun'
p6076
S'6186'
p6077
sS'series Noun'
p6078
S'54549'
p6079
sS'Italian Adjective'
p6080
S'12384'
p6081
sS'march Verb'
p6082
S'8267'
p6083
sS'wildlife Noun'
p6084
S'7361'
p6085
sS'shop Verb'
p6086
S'8509'
p6087
sS'texture Noun'
p6088
S'5994'
p6089
sS'virtually Adverb'
p6090
S'17426'
p6091
sS'headline Noun'
p6092
S'9272'
p6093
sS'communication Noun'
p6094
S'31577'
p6095
sS'processing Noun'
p6096
S'7220'
p6097
sS'tie Noun'
p6098
S'17787'
p6099
sS'block Noun'
p6100
S'28826'
p6101
sS'tribe Noun'
p6102
S'10855'
p6103
sS'thigh Noun'
p6104
S'6576'
p6105
sS'social Adjective'
p6106
S'132899'
p6107
sS'juror Noun'
p6108
S'7497'
p6109
sS'extension Noun'
p6110
S'9672'
p6111
sS'rat Noun'
p6112
S'8177'
p6113
sS'peer Verb'
p6114
S'9099'
p6115
sS'cure Verb'
p6116
S'5444'
p6117
sS'fiber Noun'
p6118
S'13606'
p6119
sS'publisher Noun'
p6120
S'10282'
p6121
sS'heritage Noun'
p6122
S'9670'
p6123
sS'daughter Noun'
p6124
S'60424'
p6125
sS'amendment Noun'
p6126
S'8132'
p6127
sS'assault Noun'
p6128
S'11039'
p6129
sS'maker Noun'
p6130
S'14586'
p6131
sS'Christian Adjective'
p6132
S'30726'
p6133
sS'bunch Noun'
p6134
S'12225'
p6135
sS'abortion Noun'
p6136
S'18925'
p6137
sS'author Noun'
p6138
S'58300'
p6139
sS'spend Verb'
p6140
S'114569'
p6141
sS'quite Adverb'
p6142
S'69966'
p6143
sS'express Verb'
p6144
S'30947'
p6145
sS'civilian Noun'
p6146
S'7889'
p6147
sS'oral Adjective'
p6148
S'7448'
p6149
sS'terrorist Noun'
p6150
S'12169'
p6151
sS'turkey Noun'
p6152
S'7757'
p6153
sS'flight Noun'
p6154
S'29535'
p6155
sS'effectiveness Noun'
p6156
S'8889'
p6157
sS'lifetime Noun'
p6158
S'11293'
p6159
sS'literally Adverb'
p6160
S'13425'
p6161
sS'dear Adjective'
p6162
S'9151'
p6163
sS'involvement Noun'
p6164
S'15640'
p6165
sS'politician Noun'
p6166
S'20360'
p6167
sS'agenda Noun'
p6168
S'16449'
p6169
sS'deadline Noun'
p6170
S'6932'
p6171
sS'psychology Noun'
p6172
S'11316'
p6173
sS'execution Noun'
p6174
S'6278'
p6175
sS'dish Noun'
p6176
S'18887'
p6177
sS'lens Noun'
p6178
S'8313'
p6179
sS'continent Noun'
p6180
S'6730'
p6181
sS'student Noun'
p6182
S'255047'
p6183
sS'right Noun'
p6184
S'163259'
p6185
sS'possible Adjective'
p6186
S'85084'
p6187
sS'cooking Noun'
p6188
S'9403'
p6189
sS'refuge Noun'
p6190
S'5505'
p6191
sS'impossible Adjective'
p6192
S'22233'
p6193
sS'puzzle Noun'
p6194
S'6153'
p6195
sS'architect Noun'
p6196
S'8969'
p6197
sS'honest Adjective'
p6198
S'12916'
p6199
sS'root Noun'
p6200
S'20774'
p6201
sS'pool Noun'
p6202
S'23346'
p6203
sS'room Noun'
p6204
S'172472'
p6205
sS'ie Adverb'
p6206
S'13724'
p6207
sS'achieve Verb'
p6208
S'35166'
p6209
sS'drop Verb'
p6210
S'56448'
p6211
sS'photography Noun'
p6212
S'7087'
p6213
sS'under Adverb'
p6214
S'21521'
p6215
sS'cord Noun'
p6216
S'6071'
p6217
sS'stare Verb'
p6218
S'39266'
p6219
sS'prevention Noun'
p6220
S'7352'
p6221
sS'bury Verb'
p6222
S'14030'
p6223
sS'architecture Noun'
p6224
S'8449'
p6225
sS'nail Noun'
p6226
S'8255'
p6227
sS'claim Verb'
p6228
S'44259'
p6229
sS'guarantee Verb'
p6230
S'11430'
p6231
sS'angel Noun'
p6232
S'6978'
p6233
sS'dignity Noun'
p6234
S'6585'
p6235
sS'Thanksgiving Noun'
p6236
S'5859'
p6237
sS'whale Noun'
p6238
S'6928'
p6239
sS'illegal Adjective'
p6240
S'17258'
p6241
sS'shall Verb'
p6242
S'15997'
p6243
sS'eventually Adverb'
p6244
S'34534'
p6245
sS'consultant Noun'
p6246
S'13646'
p6247
sS'spray Noun'
p6248
S'6005'
p6249
sS'cover Noun'
p6250
S'22301'
p6251
sS'result Noun'
p6252
S'116277'
p6253
sS'organize Verb'
p6254
S'22389'
p6255
sS'forum Noun'
p6256
S'5419'
p6257
sS'previous Adjective'
p6258
S'30490'
p6259
sS'woman Noun'
p6260
S'341422'
p6261
sS'possession Noun'
p6262
S'7828'
p6263
sS'influence Verb'
p6264
S'21448'
p6265
sS'rush Noun'
p6266
S'7458'
p6267
sS'award Verb'
p6268
S'7666'
p6269
sS'coordinator Noun'
p6270
S'6478'
p6271
sS'refer Verb'
p6272
S'34317'
p6273
sS'rebuild Verb'
p6274
S'7474'
p6275
sS'Cuban Adjective'
p6276
S'6601'
p6277
sS'standard Adjective'
p6278
S'20917'
p6279
sS'attendance Noun'
p6280
S'5963'
p6281
sS'shareholder Noun'
p6282
S'5742'
p6283
sS'sheet Noun'
p6284
S'20787'
p6285
sS'intention Noun'
p6286
S'13207'
p6287
sS'marketplace Noun'
p6288
S'5650'
p6289
sS'sure Adverb'
p6290
S'14854'
p6291
sS'liberty Noun'
p6292
S'7442'
p6293
sS'critical Adjective'
p6294
S'35824'
p6295
sS'deposit Noun'
p6296
S'5497'
p6297
sS'profile Noun'
p6298
S'12089'
p6299
sS'recently Adverb'
p6300
S'55992'
p6301
sS'favor Noun'
p6302
S'8403'
p6303
sS'electrical Adjective'
p6304
S'7347'
p6305
sS'blond Adjective'
p6306
S'5479'
p6307
sS'prior Adjective'
p6308
S'6720'
p6309
sS'assessment Noun'
p6310
S'26318'
p6311
sS'arrange Verb'
p6312
S'15258'
p6313
sS'equity Noun'
p6314
S'7277'
p6315
sS'summer Noun'
p6316
S'62503'
p6317
sS'reasonable Adjective'
p6318
S'13130'
p6319
sS'attend Verb'
p6320
S'33380'
p6321
sS'casual Adjective'
p6322
S'6946'
p6323
sS'fade Verb'
p6324
S'11373'
p6325
sS'homeless Adjective'
p6326
S'9149'
p6327
sS'name Verb'
p6328
S'47375'
p6329
sS'juice Noun'
p6330
S'15388'
p6331
sS'giant Noun'
p6332
S'7102'
p6333
sS'wealth Noun'
p6334
S'12886'
p6335
sS'medical Adjective'
p6336
S'59424'
p6337
sS'value Verb'
p6338
S'7000'
p6339
sS'so Adverb'
p6340
S'756550'
p6341
sS'pilot Noun'
p6342
S'20192'
p6343
sS'universe Noun'
p6344
S'16596'
p6345
sS'advocate Verb'
p6346
S'7198'
p6347
sS'steadily Adverb'
p6348
S'5085'
p6349
sS'charter Noun'
p6350
S'6011'
p6351
sS'wrong Adjective'
p6352
S'58988'
p6353
sS'recent Adjective'
p6354
S'70685'
p6355
sS'alien Noun'
p6356
S'7134'
p6357
sS'promise Verb'
p6358
S'25720'
p6359
sS'detect Verb'
p6360
S'11776'
p6361
sS'opt Verb'
p6362
S'5371'
p6363
sS'bride Noun'
p6364
S'5613'
p6365
sS'needle Noun'
p6366
S'7378'
p6367
sS'loose Adjective'
p6368
S'11299'
p6369
sS'bitter Adjective'
p6370
S'8353'
p6371
sS'different Adjective'
p6372
S'162411'
p6373
sS'philosophical Adjective'
p6374
S'5731'
p6375
sS'serving Noun'
p6376
S'9453'
p6377
sS'midnight Noun'
p6378
S'8440'
p6379
sS'buck Noun'
p6380
S'13693'
p6381
sS'relax Verb'
p6382
S'11202'
p6383
sS'lap Noun'
p6384
S'9260'
p6385
sS'establish Verb'
p6386
S'45921'
p6387
sS'permit Noun'
p6388
S'5305'
p6389
sS'post Noun'
p6390
S'15693'
p6391
sS'dramatic Adjective'
p6392
S'16233'
p6393
sS'direct Verb'
p6394
S'23298'
p6395
sS'wing Noun'
p6396
S'19028'
p6397
sS'companion Noun'
p6398
S'8136'
p6399
sS'inside Adverb'
p6400
S'30715'
p6401
sS'number Noun'
p6402
S'186005'
p6403
sS'status Noun'
p6404
S'33511'
p6405
sS'doorway Noun'
p6406
S'7914'
p6407
sS'large Adjective'
p6408
S'175611'
p6409
sS'fighter Noun'
p6410
S'10306'
p6411
sS'cook Noun'
p6412
S'6866'
p6413
sS'load Noun'
p6414
S'10869'
p6415
sS'rich Adjective'
p6416
S'35940'
p6417
sS'prove Verb'
p6418
S'44304'
p6419
sS'magic Adjective'
p6420
S'8506'
p6421
sS'scheme Noun'
p6422
S'10428'
p6423
sS'commonly Adverb'
p6424
S'7861'
p6425
sS'blood Noun'
p6426
S'56351'
p6427
sS'vanish Verb'
p6428
S'7154'
p6429
sS'faculty Noun'
p6430
S'20104'
p6431
sS'cemetery Noun'
p6432
S'5584'
p6433
sS'perform Verb'
p6434
S'41667'
p6435
sS'drunk Adjective'
p6436
S'7890'
p6437
sS'threshold Noun'
p6438
S'5490'
p6439
sS'venture Noun'
p6440
S'9278'
p6441
sS'disturb Verb'
p6442
S'5532'
p6443
sS'participant Noun'
p6444
S'41462'
p6445
sS'highly Adverb'
p6446
S'29554'
p6447
sS'sigh Verb'
p6448
S'10099'
p6449
sS'early Adverb'
p6450
S'75605'
p6451
sS'picture Noun'
p6452
S'69229'
p6453
sS'hear Verb'
p6454
S'196070'
p6455
sS'pit Noun'
p6456
S'7132'
p6457
sS'grave Noun'
p6458
S'8868'
p6459
sS'stance Noun'
p6460
S'5812'
p6461
sS'bone Noun'
p6462
S'26282'
p6463
sS'aside Adverb'
p6464
S'19056'
p6465
sS'trait Noun'
p6466
S'7980'
p6467
sS'advertising Noun'
p6468
S'12601'
p6469
sS'show Verb'
p6470
S'208037'
p6471
sS'vote Noun'
p6472
S'39464'
p6473
sS'distinguish Verb'
p6474
S'9664'
p6475
sS'sum Noun'
p6476
S'7217'
p6477
sS'structural Adjective'
p6478
S'7870'
p6479
sS'diagnose Verb'
p6480
S'7255'
p6481
sS'dominate Verb'
p6482
S'14768'
p6483
sS'others Noun'
p6484
S'115771'
p6485
sS'sink Noun'
p6486
S'7052'
p6487
sS'sheep Noun'
p6488
S'6320'
p6489
sS'mortality Noun'
p6490
S'5785'
p6491
sS'butterfly Noun'
p6492
S'5031'
p6493
sS'approve Verb'
p6494
S'17329'
p6495
sS'conduct Verb'
p6496
S'34909'
p6497
sS'gene Noun'
p6498
S'15377'
p6499
sS'documentary Noun'
p6500
S'6321'
p6501
sS'software Noun'
p6502
S'23954'
p6503
sS'write Verb'
p6504
S'161824'
p6505
sS'card Noun'
p6506
S'43605'
p6507
sS'PC Noun'
p6508
S'11072'
p6509
sS'beef Noun'
p6510
S'8416'
p6511
sS'balance Noun'
p6512
S'22243'
p6513
sS'booth Noun'
p6514
S'6191'
p6515
sS'stove Noun'
p6516
S'6082'
p6517
sS'bucket Noun'
p6518
S'5233'
p6519
sS'grandparent Noun'
p6520
S'5334'
p6521
sS'community Noun'
p6522
S'133057'
p6523
sS'quickly Adverb'
p6524
S'56454'
p6525
sS'survival Noun'
p6526
S'12335'
p6527
sS'amount Noun'
p6528
S'49944'
p6529
sS'wet Adjective'
p6530
S'13963'
p6531
sS'marker Noun'
p6532
S'5156'
p6533
sS'crowd Noun'
p6534
S'30542'
p6535
sS'sex Noun'
p6536
S'47827'
p6537
sS'argument Noun'
p6538
S'33394'
p6539
sS'chunk Noun'
p6540
S'5682'
p6541
sS'entitle Verb'
p6542
S'8381'
p6543
sS'differ Verb'
p6544
S'11222'
p6545
sS'crawl Verb'
p6546
S'7596'
p6547
sS'listener Noun'
p6548
S'5621'
p6549
sS'shooting Noun'
p6550
S'11633'
p6551
sS'obtain Verb'
p6552
S'24538'
p6553
sS'cap Noun'
p6554
S'14672'
p6555
sS'competitive Adjective'
p6556
S'14938'
p6557
sS'distinction Noun'
p6558
S'11383'
p6559
sS'artifact Noun'
p6560
S'5773'
p6561
sS'on Adverb'
p6562
S'236980'
p6563
sS'chance Noun'
p6564
S'62682'
p6565
sS'highlight Verb'
p6566
S'9119'
p6567
sS'weight Noun'
p6568
S'41919'
p6569
sS'screen Verb'
p6570
S'5079'
p6571
sS'congressional Adjective'
p6572
S'14936'
p6573
sS'desert Noun'
p6574
S'15653'
p6575
sS'pad Noun'
p6576
S'7846'
p6577
sS'perspective Noun'
p6578
S'28324'
p6579
sS'logic Noun'
p6580
S'8646'
p6581
sS'favorite Noun'
p6582
S'11134'
p6583
sS'shy Adjective'
p6584
S'5806'
p6585
sS'hand Verb'
p6586
S'18231'
p6587
sS'inspiration Noun'
p6588
S'6584'
p6589
sS'racial Adjective'
p6590
S'15687'
p6591
sS'catch Noun'
p6592
S'6377'
p6593
sS'budget Noun'
p6594
S'39165'
p6595
sS'calendar Noun'
p6596
S'5258'
p6597
sS'discipline Noun'
p6598
S'15684'
p6599
sS'black Adjective'
p6600
S'150718'
p6601
sS'dad Noun'
p6602
S'20164'
p6603
sS'material Noun'
p6604
S'62440'
p6605
sS'liberal Noun'
p6606
S'5677'
p6607
sS'fast Adverb'
p6608
S'35474'
p6609
sS'break Verb'
p6610
S'79310'
p6611
sS'jet Noun'
p6612
S'9690'
p6613
sS'player Noun'
p6614
S'81358'
p6615
sS'tender Adjective'
p6616
S'7013'
p6617
sS'charge Verb'
p6618
S'26432'
p6619
sS'recommendation Noun'
p6620
S'11824'
p6621
sS'chronic Adjective'
p6622
S'8036'
p6623
sS'exhaust Verb'
p6624
S'5204'
p6625
sS'nowhere Adverb'
p6626
S'10658'
p6627
sS'therapy Noun'
p6628
S'16351'
p6629
sS'cat Noun'
p6630
S'21135'
p6631
sS'grateful Adjective'
p6632
S'7597'
p6633
sS'performance Noun'
p6634
S'59909'
p6635
sS'sack Noun'
p6636
S'5880'
p6637
sS'removal Noun'
p6638
S'5488'
p6639
sS'grant Noun'
p6640
S'9372'
p6641
sS'vast Adjective'
p6642
S'17836'
p6643
sS'prohibit Verb'
p6644
S'6896'
p6645
sS'tap Verb'
p6646
S'11279'
p6647
sS'county Noun'
p6648
S'22675'
p6649
sS'control Verb'
p6650
S'41771'
p6651
sS'examine Verb'
p6652
S'35826'
p6653
sS'criminal Noun'
p6654
S'8854'
p6655
sS'favorable Adjective'
p6656
S'5324'
p6657
sS'Indian Noun'
p6658
S'15021'
p6659
sS'manufacturer Noun'
p6660
S'15741'
p6661
sS'stair Noun'
p6662
S'12171'
p6663
sS'central Adjective'
p6664
S'52501'
p6665
sS'arrangement Noun'
p6666
S'14403'
p6667
sS'envision Verb'
p6668
S'5619'
p6669
sS'interest Noun'
p6670
S'96620'
p6671
sS'undertake Verb'
p6672
S'7044'
p6673
sS'contemplate Verb'
p6674
S'5027'
p6675
sS'handle Verb'
p6676
S'30634'
p6677
sS'roughly Adverb'
p6678
S'12200'
p6679
sS'dessert Noun'
p6680
S'6286'
p6681
sS'laugh Noun'
p6682
S'8164'
p6683
sS'baby Noun'
p6684
S'67881'
p6685
sS'once Adverb'
p6686
S'126203'
p6687
sS'summit Noun'
p6688
S'9628'
p6689
sS'pregnancy Noun'
p6690
S'8944'
p6691
sS'triumph Noun'
p6692
S'5337'
p6693
sS'bulk Noun'
p6694
S'5324'
p6695
sS'guilty Adjective'
p6696
S'17596'
p6697
sS'representative Noun'
p6698
S'18189'
p6699
sS'compelling Adjective'
p6700
S'4995'
p6701
sS'theology Noun'
p6702
S'7866'
p6703
sS'reliability Noun'
p6704
S'7053'
p6705
sS'owe Verb'
p6706
S'10141'
p6707
sS'automatically Adverb'
p6708
S'6823'
p6709
sS'jungle Noun'
p6710
S'5693'
p6711
sS'fine Adjective'
p6712
S'55174'
p6713
sS'rise Noun'
p6714
S'18055'
p6715
sS'garage Noun'
p6716
S'9573'
p6717
sS'victory Noun'
p6718
S'26422'
p6719
sS'peaceful Adjective'
p6720
S'7704'
p6721
sS'couch Noun'
p6722
S'9209'
p6723
sS'elevator Noun'
p6724
S'7535'
p6725
sS'good Noun'
p6726
S'15259'
p6727
sS'definition Noun'
p6728
S'17499'
p6729
sS'secret Noun'
p6730
S'19125'
p6731
sS'horrible Adjective'
p6732
S'7538'
p6733
sS'headache Noun'
p6734
S'5256'
p6735
sS'shrimp Noun'
p6736
S'6631'
p6737
sS'tablespoon Noun'
p6738
S'15804'
p6739
sS'experienced Adjective'
p6740
S'6031'
p6741
sS'essential Adjective'
p6742
S'19030'
p6743
sS'lamp Noun'
p6744
S'7290'
p6745
sS'sue Verb'
p6746
S'9797'
p6747
sS'gaze Noun'
p6748
S'9852'
p6749
sS'immigrant Noun'
p6750
S'17615'
p6751
sS'bowl Noun'
p6752
S'20662'
p6753
sS'emotionally Adverb'
p6754
S'5321'
p6755
sS'crop Noun'
p6756
S'13733'
p6757
sS'cholesterol Noun'
p6758
S'10641'
p6759
sS'maximum Adjective'
p6760
S'8075'
p6761
sS'plan Noun'
p6762
S'95824'
p6763
sS'admire Verb'
p6764
S'9016'
p6765
sS'haul Verb'
p6766
S'6401'
p6767
sS'lane Noun'
p6768
S'6540'
p6769
sS'compose Verb'
p6770
S'8866'
p6771
sS'cycle Noun'
p6772
S'15775'
p6773
sS'employment Noun'
p6774
S'13673'
p6775
sS'continuous Adjective'
p6776
S'8996'
p6777
sS'knife Noun'
p6778
S'15792'
p6779
sS'any Adverb'
p6780
S'5352'
p6781
sS'motive Noun'
p6782
S'8029'
p6783
sS'chief Noun'
p6784
S'20453'
p6785
sS'improved Adjective'
p6786
S'6720'
p6787
sS'easy Adverb'
p6788
S'10790'
p6789
sS'play Verb'
p6790
S'188328'
p6791
sS'dog Noun'
p6792
S'52347'
p6793
sS'regulator Noun'
p6794
S'5462'
p6795
sS'sexually Adverb'
p6796
S'6806'
p6797
sS'speculation Noun'
p6798
S'5698'
p6799
sS'resume Verb'
p6800
S'7243'
p6801
sS'accomplishment Noun'
p6802
S'5980'
p6803
sS'track Noun'
p6804
S'33788'
p6805
sS'surprise Noun'
p6806
S'22275'
p6807
sS'electric Adjective'
p6808
S'12007'
p6809
sS'tiny Adjective'
p6810
S'29756'
p6811
sS'beard Noun'
p6812
S'5528'
p6813
sS'correctly Adverb'
p6814
S'5884'
p6815
sS'sudden Adjective'
p6816
S'11370'
p6817
sS'depressed Adjective'
p6818
S'5543'
p6819
sS'correct Adjective'
p6820
S'20613'
p6821
sS'sand Noun'
p6822
S'15658'
p6823
sS'prominent Adjective'
p6824
S'10948'
p6825
sS'mass Noun'
p6826
S'18107'
p6827
sS'love Verb'
p6828
S'103681'
p6829
sS'fast Adjective'
p6830
S'12738'
p6831
sS'pace Noun'
p6832
S'12891'
p6833
sS'learn Verb'
p6834
S'124346'
p6835
sS'other Adjective'
p6836
S'547799'
p6837
sS'mad Adjective'
p6838
S'12903'
p6839
sS'gathering Noun'
p6840
S'6671'
p6841
sS'model Verb'
p6842
S'5925'
p6843
sS'cable Noun'
p6844
S'18277'
p6845
sS'Christian Noun'
p6846
S'9751'
p6847
sS'celebrity Noun'
p6848
S'10756'
p6849
sS'pure Adjective'
p6850
S'13671'
p6851
sS'difficulty Noun'
p6852
S'22288'
p6853
sS'welcome Verb'
p6854
S'25241'
p6855
sS'touch Verb'
p6856
S'34737'
p6857
sS'curtain Noun'
p6858
S'8204'
p6859
sS'pension Noun'
p6860
S'7660'
p6861
sS'priority Noun'
p6862
S'16586'
p6863
sS'engage Verb'
p6864
S'28194'
p6865
sS'convert Verb'
p6866
S'10990'
p6867
sS'guideline Noun'
p6868
S'10303'
p6869
sS'beat Noun'
p6870
S'13118'
p6871
sS'wooden Adjective'
p6872
S'13518'
p6873
sS'understanding Noun'
p6874
S'31319'
p6875
sS'mechanism Noun'
p6876
S'12948'
p6877
sS'workshop Noun'
p6878
S'9926'
p6879
sS'contemporary Adjective'
p6880
S'19293'
p6881
sS'aim Noun'
p6882
S'7973'
p6883
sS'rest Verb'
p6884
S'18915'
p6885
sS'flexible Adjective'
p6886
S'6312'
p6887
sS'candidate Noun'
p6888
S'43251'
p6889
sS'thereby Adverb'
p6890
S'7588'
p6891
sS'predict Verb'
p6892
S'22942'
p6893
sS'bother Verb'
p6894
S'15870'
p6895
sS'impulse Noun'
p6896
S'5305'
p6897
sS'plastic Noun'
p6898
S'24563'
p6899
sS'critic Noun'
p6900
S'28244'
p6901
sS'clock Noun'
p6902
S'12395'
p6903
sS'celebration Noun'
p6904
S'10209'
p6905
sS'lighting Noun'
p6906
S'5081'
p6907
sS'male Noun'
p6908
S'22398'
p6909
sS'watch Noun'
p6910
S'13996'
p6911
sS'optimistic Adjective'
p6912
S'6412'
p6913
sS'principal Noun'
p6914
S'9920'
p6915
sS'strategic Adjective'
p6916
S'12347'
p6917
sS'campus Noun'
p6918
S'17541'
p6919
sS'license Noun'
p6920
S'10943'
p6921
sS'earnings Noun'
p6922
S'11324'
p6923
sS'connection Noun'
p6924
S'26552'
p6925
sS'striking Adjective'
p6926
S'5516'
p6927
sS'hence Adverb'
p6928
S'8468'
p6929
sS'total Adjective'
p6930
S'38798'
p6931
sS'dress Noun'
p6932
S'21362'
p6933
sS'problem Noun'
p6934
S'217728'
p6935
sS'vegetable Noun'
p6936
S'19363'
p6937
sS'shake Verb'
p6938
S'45160'
p6939
sS'risk Verb'
p6940
S'9285'
p6941
sS'faster Adjective'
p6942
S'5538'
p6943
sS'incorporate Verb'
p6944
S'13310'
p6945
sS'exercise Verb'
p6946
S'14766'
p6947
sS'collar Noun'
p6948
S'5791'
p6949
sS'okay Adjective'
p6950
S'9499'
p6951
sS'pride Noun'
p6952
S'11107'
p6953
sS'access Verb'
p6954
S'6023'
p6955
sS'British Adjective'
p6956
S'32929'
p6957
sS'agricultural Adjective'
p6958
S'10535'
p6959
sS'bronze Noun'
p6960
S'5118'
p6961
sS'assert Verb'
p6962
S'10125'
p6963
sS'mood Noun'
p6964
S'14227'
p6965
sS'fragile Adjective'
p6966
S'5125'
p6967
sS'healthy Adjective'
p6968
S'26009'
p6969
sS'hotel Noun'
p6970
S'39642'
p6971
sS'situation Noun'
p6972
S'72603'
p6973
sS'truck Noun'
p6974
S'31536'
p6975
sS'reporting Noun'
p6976
S'7184'
p6977
sS'cost Verb'
p6978
S'34941'
p6979
sS'only Adjective'
p6980
S'117700'
p6981
sS'administrative Adjective'
p6982
S'8895'
p6983
sS'cue Noun'
p6984
S'5186'
p6985
sS'revenue Noun'
p6986
S'22445'
p6987
sS'theater Noun'
p6988
S'24447'
p6989
sS'whole Noun'
p6990
S'15558'
p6991
sS'regardless Adverb'
p6992
S'11042'
p6993
sS'emission Noun'
p6994
S'11688'
p6995
sS'dismiss Verb'
p6996
S'11160'
p6997
sS'ethnic Adjective'
p6998
S'22632'
p6999
sS'yield Verb'
p7000
S'12634'
p7001
sS'entirely Adverb'
p7002
S'19075'
p7003
sS'ok Adverb'
p7004
S'54697'
p7005
sS'program Noun'
p7006
S'195985'
p7007
sS'record Verb'
p7008
S'21939'
p7009
sS'ladder Noun'
p7010
S'5720'
p7011
sS'hazard Noun'
p7012
S'5159'
p7013
sS'shock Verb'
p7014
S'6492'
p7015
sS'dirt Noun'
p7016
S'12063'
p7017
sS'classroom Noun'
p7018
S'27531'
p7019
sS'belief Noun'
p7020
S'28844'
p7021
sS'acknowledge Verb'
p7022
S'21983'
p7023
sS'Mrs Noun'
p7024
S'40545'
p7025
sS'farm Noun'
p7026
S'30291'
p7027
sS'stomach Noun'
p7028
S'13845'
p7029
sS'sad Adjective'
p7030
S'16163'
p7031
sS'happiness Noun'
p7032
S'7036'
p7033
sS'ring Verb'
p7034
S'14757'
p7035
sS'foreigner Noun'
p7036
S'5076'
p7037
sS'slap Verb'
p7038
S'7015'
p7039
sS'disappear Verb'
p7040
S'23389'
p7041
sS'arrive Verb'
p7042
S'47435'
p7043
sS'announce Verb'
p7044
S'33305'
p7045
sS'cause Noun'
p7046
S'38843'
p7047
sS'glance Noun'
p7048
S'8122'
p7049
sS'robot Noun'
p7050
S'6023'
p7051
sS'God Noun'
p7052
S'9694'
p7053
sS'alone Adjective'
p7054
S'23106'
p7055
sS'uniform Noun'
p7056
S'10193'
p7057
sS'concerned Adjective'
p7058
S'34331'
p7059
sS'comfort Noun'
p7060
S'10674'
p7061
sS'hero Noun'
p7062
S'18348'
p7063
sS'devastating Adjective'
p7064
S'5055'
p7065
sS'train Verb'
p7066
S'23990'
p7067
sS'sustainable Adjective'
p7068
S'5339'
p7069
sS'reverse Verb'
p7070
S'8154'
p7071
sS'common Adjective'
p7072
S'55940'
p7073
sS'relieve Verb'
p7074
S'7352'
p7075
sS'comply Verb'
p7076
S'5452'
p7077
sS'freedom Noun'
p7078
S'34174'
p7079
sS'retreat Noun'
p7080
S'5132'
p7081
sS'column Noun'
p7082
S'16810'
p7083
sS'emotion Noun'
p7084
S'16062'
p7085
sS'expect Verb'
p7086
S'95566'
p7087
sS'cheese Noun'
p7088
S'17416'
p7089
sS'dinner Noun'
p7090
S'37156'
p7091
sS'confusion Noun'
p7092
S'8751'
p7093
sS'guilt Noun'
p7094
S'7746'
p7095
sS'transport Verb'
p7096
S'5336'
p7097
sS'opportunity Noun'
p7098
S'62422'
p7099
sS'short-term Adjective'
p7100
S'5998'
p7101
sS'gear Noun'
p7102
S'12872'
p7103
sS'cross Noun'
p7104
S'8207'
p7105
sS'framework Noun'
p7106
S'11710'
p7107
sS'pretty Adjective'
p7108
S'13951'
p7109
sS'respectively Adverb'
p7110
S'8223'
p7111
sS'adventure Noun'
p7112
S'11031'
p7113
sS'bomb Verb'
p7114
S'5275'
p7115
sS'over Adverb'
p7116
S'208260'
p7117
sS'tire Verb'
p7118
S'11494'
p7119
sS'discover Verb'
p7120
S'40489'
p7121
sS'moment Noun'
p7122
S'109720'
p7123
sS'developmental Adjective'
p7124
S'6255'
p7125
sS'length Noun'
p7126
S'19624'
p7127
sS'compromise Verb'
p7128
S'5322'
p7129
sS'soar Verb'
p7130
S'5344'
p7131
sS'vulnerable Adjective'
p7132
S'10397'
p7133
sS'so-called Adjective'
p7134
S'14065'
p7135
sS'integration Noun'
p7136
S'8847'
p7137
sS'chest Noun'
p7138
S'22508'
p7139
sS'exchange Noun'
p7140
S'24826'
p7141
sS'trail Verb'
p7142
S'7049'
p7143
sS'gross Adjective'
p7144
S'5802'
p7145
sS'truth Noun'
p7146
S'45155'
p7147
sS'poet Noun'
p7148
S'10840'
p7149
sS'chase Verb'
p7150
S'8980'
p7151
sS'crime Noun'
p7152
S'48010'
p7153
sS'assure Verb'
p7154
S'12542'
p7155
sS'gaze Verb'
p7156
S'6379'
p7157
sS'mom Noun'
p7158
S'23450'
p7159
sS'diplomatic Adjective'
p7160
S'7193'
p7161
sS'recipient Noun'
p7162
S'7126'
p7163
sS'recipe Noun'
p7164
S'13840'
p7165
sS'song Noun'
p7166
S'45352'
p7167
sS'environment Noun'
p7168
S'47807'
p7169
sS'steak Noun'
p7170
S'5596'
p7171
sS'closely Adverb'
p7172
S'17220'
p7173
sS'franchise Noun'
p7174
S'6332'
p7175
sS'extreme Adjective'
p7176
S'13064'
p7177
sS'opposite Adjective'
p7178
S'15554'
p7179
sS'crack Verb'
p7180
S'9334'
p7181
sS'sort Noun'
p7182
S'47086'
p7183
sS'anger Noun'
p7184
S'14241'
p7185
sS'prefer Verb'
p7186
S'20946'
p7187
sS'empire Noun'
p7188
S'6268'
p7189
sS'combine Verb'
p7190
S'26570'
p7191
sS'present Noun'
p7192
S'15267'
p7193
sS'passing Adjective'
p7194
S'5903'
p7195
sS'quarterback Noun'
p7196
S'10014'
p7197
sS'intervention Noun'
p7198
S'21021'
p7199
sS'step Verb'
p7200
S'39356'
p7201
sS'brief Adjective'
p7202
S'15770'
p7203
sS'undergraduate Noun'
p7204
S'5683'
p7205
sS'punish Verb'
p7206
S'6955'
p7207
sS'condemn Verb'
p7208
S'6418'
p7209
sS'unable Adjective'
p7210
S'15901'
p7211
sS'cart Noun'
p7212
S'6822'
p7213
sS'rule Verb'
p7214
S'15310'
p7215
sS'neighboring Adjective'
p7216
S'5082'
p7217
sS'grandchild Noun'
p7218
S'5826'
p7219
sS'wonder Noun'
p7220
S'12265'
p7221
sS'ratio Noun'
p7222
S'10457'
p7223
sS'receive Verb'
p7224
S'80250'
p7225
sS'appearance Noun'
p7226
S'21146'
p7227
sS'prediction Noun'
p7228
S'7996'
p7229
sS'novel Noun'
p7230
S'22392'
p7231
sS'elaborate Adjective'
p7232
S'5349'
p7233
sS'beast Noun'
p7234
S'6052'
p7235
sS'nation Noun'
p7236
S'97212'
p7237
sS'mess Noun'
p7238
S'8745'
p7239
sS'bake Verb'
p7240
S'12253'
p7241
sS'crazy Adjective'
p7242
S'20345'
p7243
sS'return Verb'
p7244
S'81812'
p7245
sS'land Verb'
p7246
S'17401'
p7247
sS'home Adverb'
p7248
S'97937'
p7249
sS'open Verb'
p7250
S'111857'
p7251
sS'pretend Verb'
p7252
S'11330'
p7253
sS'Spanish Adjective'
p7254
S'15512'
p7255
sS'front Noun'
p7256
S'24402'
p7257
sS'custom Noun'
p7258
S'10408'
p7259
sS'dry Adjective'
p7260
S'23809'
p7261
sS'stand Noun'
p7262
S'18910'
p7263
sS'breeze Noun'
p7264
S'6423'
p7265
sS'developer Noun'
p7266
S'8671'
p7267
sS'diet Noun'
p7268
S'16933'
p7269
sS'investigate Verb'
p7270
S'20117'
p7271
sS'gravity Noun'
p7272
S'7000'
p7273
sS'temperature Noun'
p7274
S'23111'
p7275
sS'neither Adverb'
p7276
S'20100'
p7277
sS'winner Noun'
p7278
S'19216'
p7279
sS'work Noun'
p7280
S'187533'
p7281
sS'softly Adverb'
p7282
S'7487'
p7283
sS'actress Noun'
p7284
S'9448'
p7285
sS'region Noun'
p7286
S'50914'
p7287
sS'survive Verb'
p7288
S'27682'
p7289
sS'technological Adjective'
p7290
S'7780'
p7291
sS'recommend Verb'
p7292
S'21707'
p7293
sS'order Verb'
p7294
S'27950'
p7295
sS'strike Verb'
p7296
S'33238'
p7297
sS'obstacle Noun'
p7298
S'8075'
p7299
sS'divorce Noun'
p7300
S'10322'
p7301
sS'emergency Noun'
p7302
S'20796'
p7303
sS'feature Verb'
p7304
S'21678'
p7305
sS'slide Verb'
p7306
S'16805'
p7307
sS'pine Noun'
p7308
S'9824'
p7309
sS'candle Noun'
p7310
S'7204'
p7311
sS'domestic Adjective'
p7312
S'24313'
p7313
sS'lock Verb'
p7314
S'15616'
p7315
sS'bush Noun'
p7316
S'6307'
p7317
sS'busy Adjective'
p7318
S'18500'
p7319
sS'pro Adjective'
p7320
S'6101'
p7321
sS'rhetoric Noun'
p7322
S'7765'
p7323
sS'agreement Noun'
p7324
S'38141'
p7325
sS'habitat Noun'
p7326
S'9665'
p7327
sS'limit Verb'
p7328
S'28901'
p7329
sS'bureau Noun'
p7330
S'6199'
p7331
sS'visitor Noun'
p7332
S'21490'
p7333
sS'kiss Noun'
p7334
S'7195'
p7335
sS'queen Noun'
p7336
S'6606'
p7337
sS'magnetic Adjective'
p7338
S'5377'
p7339
sS'indigenous Adjective'
p7340
S'8785'
p7341
sS'lonely Adjective'
p7342
S'6868'
p7343
sS'dedicate Verb'
p7344
S'7226'
p7345
sS'harm Noun'
p7346
S'7619'
p7347
sS'regime Noun'
p7348
S'21101'
p7349
sS'blow Verb'
p7350
S'27254'
p7351
sS'save Verb'
p7352
S'52067'
p7353
sS'lifestyle Noun'
p7354
S'9904'
p7355
sS'reach Verb'
p7356
S'92375'
p7357
sS'review Noun'
p7358
S'28141'
p7359
sS'elephant Noun'
p7360
S'6038'
p7361
sS'culture Noun'
p7362
S'67128'
p7363
sS'physically Adverb'
p7364
S'9039'
p7365
sS'thick Adjective'
p7366
S'21932'
p7367
sS'payment Noun'
p7368
S'16704'
p7369
sS'ongoing Adjective'
p7370
S'10721'
p7371
sS'circumstance Noun'
p7372
S'20310'
p7373
sS'change Verb'
p7374
S'123183'
p7375
sS'boundary Noun'
p7376
S'12082'
p7377
sS'document Noun'
p7378
S'29437'
p7379
sS'inquiry Noun'
p7380
S'9136'
p7381
sS'force Noun'
p7382
S'108005'
p7383
sS'photograph Verb'
p7384
S'5006'
p7385
sS'mind Noun'
p7386
S'82808'
p7387
sS'embrace Verb'
p7388
S'13183'
p7389
sS'tradition Noun'
p7390
S'32110'
p7391
sS'strength Noun'
p7392
S'29769'
p7393
sS'win Noun'
p7394
S'9584'
p7395
sS'presidential Adjective'
p7396
S'24057'
p7397
sS'lab Noun'
p7398
S'16498'
p7399
sS'collapse Verb'
p7400
S'9163'
p7401
sS'minority Noun'
p7402
S'23167'
p7403
sS'twist Verb'
p7404
S'7875'
p7405
sS'risk Noun'
p7406
S'60432'
p7407
sS'pass Noun'
p7408
S'15599'
p7409
sS'occupation Noun'
p7410
S'9115'
p7411
sS'grant Verb'
p7412
S'18598'
p7413
sS'lovely Adjective'
p7414
S'9327'
p7415
sS'own Verb'
p7416
S'34577'
p7417
sS'future Noun'
p7418
S'58020'
p7419
sS'worker Noun'
p7420
S'69962'
p7421
sS'suppose Verb'
p7422
S'16562'
p7423
sS'video Noun'
p7424
S'35230'
p7425
sS'aim Verb'
p7426
S'18194'
p7427
sS'ago Adverb'
p7428
S'125252'
p7429
sS'equality Noun'
p7430
S'5841'
p7431
sS'palace Noun'
p7432
S'5347'
p7433
sS'Muslim Adjective'
p7434
S'13147'
p7435
sS'mostly Adverb'
p7436
S'28178'
p7437
sS'syndrome Noun'
p7438
S'6157'
p7439
sS'pro Noun'
p7440
S'6867'
p7441
sS'foreign Adjective'
p7442
S'57540'
p7443
sS'missing Adjective'
p7444
S'8232'
p7445
sS'run Verb'
p7446
S'187325'
p7447
sS'friend Noun'
p7448
S'142697'
p7449
sS'routinely Adverb'
p7450
S'5269'
p7451
sS'e-mail Noun'
p7452
S'22467'
p7453
sS'product Noun'
p7454
S'70883'
p7455
sS'benefit Verb'
p7456
S'15424'
p7457
sS'gate Noun'
p7458
S'17999'
p7459
sS'chemistry Noun'
p7460
S'5192'
p7461
sS'dream Verb'
p7462
S'12887'
p7463
sS'fight Noun'
p7464
S'23211'
p7465
sS'left Adjective'
p7466
S'50479'
p7467
sS'reservation Noun'
p7468
S'10215'
p7469
sS'homeland Noun'
p7470
S'6726'
p7471
sS'scale Noun'
p7472
S'34375'
p7473
sS'appropriate Adjective'
p7474
S'26237'
p7475
sS'leap Verb'
p7476
S'8376'
p7477
sS'sleeve Noun'
p7478
S'5855'
p7479
sS'piece Noun'
p7480
S'68901'
p7481
sS'food Noun'
p7482
S'107728'
p7483
sS'feel Noun'
p7484
S'6939'
p7485
sS'violation Noun'
p7486
S'11154'
p7487
sS'seem Verb'
p7488
S'219627'
p7489
sS'breath Noun'
p7490
S'24668'
p7491
sS'evil Adjective'
p7492
S'7045'
p7493
sS'forth Adverb'
p7494
S'19531'
p7495
sS'assumption Noun'
p7496
S'13434'
p7497
sS'broadcast Verb'
p7498
S'5138'
p7499
sS'jar Noun'
p7500
S'6284'
p7501
sS'election Noun'
p7502
S'51322'
p7503
sS'confront Verb'
p7504
S'13757'
p7505
sS'signal Verb'
p7506
S'7171'
p7507
sS'uncle Noun'
p7508
S'9355'
p7509
sS'daily Adverb'
p7510
S'8405'
p7511
sS'ethical Adjective'
p7512
S'9018'
p7513
sS'cruise Noun'
p7514
S'5434'
p7515
sS'report Noun'
p7516
S'83174'
p7517
sS'transition Noun'
p7518
S'16058'
p7519
sS'worldwide Adjective'
p7520
S'5089'
p7521
sS'paper Noun'
p7522
S'75383'
p7523
sS'airline Noun'
p7524
S'17164'
p7525
sS'hike Verb'
p7526
S'6111'
p7527
sS'clear Verb'
p7528
S'19013'
p7529
sS'exploit Verb'
p7530
S'5909'
p7531
sS'head Verb'
p7532
S'41658'
p7533
sS'transmit Verb'
p7534
S'5117'
p7535
sS'trip Noun'
p7536
S'40423'
p7537
sS'slave Noun'
p7538
S'11863'
p7539
sS'evaluate Verb'
p7540
S'15780'
p7541
sS'scramble Verb'
p7542
S'6061'
p7543
sS'bridge Noun'
p7544
S'21497'
p7545
sS'commissioner Noun'
p7546
S'6303'
p7547
sS'bell Noun'
p7548
S'12421'
p7549
sS'burning Adjective'
p7550
S'6665'
p7551
sS'feed Verb'
p7552
S'28494'
p7553
sS'deal Noun'
p7554
S'48975'
p7555
sS'ill Adjective'
p7556
S'10446'
p7557
sS'exclusive Adjective'
p7558
S'7402'
p7559
sS'circuit Noun'
p7560
S'6747'
p7561
sS'Palestinian Noun'
p7562
S'10484'
p7563
sS'take Verb'
p7564
S'670745'
p7565
sS'where Adverb'
p7566
S'194427'
p7567
sS'measurement Noun'
p7568
S'10187'
p7569
sS'courtroom Noun'
p7570
S'6772'
p7571
sS'seat Verb'
p7572
S'6227'
p7573
sS'consequence Noun'
p7574
S'23307'
p7575
sS'tension Noun'
p7576
S'15614'
p7577
sS'frustration Noun'
p7578
S'9005'
p7579
sS'yesterday Adverb'
p7580
S'26215'
p7581
sS'dark Noun'
p7582
S'16865'
p7583
sS'stone Noun'
p7584
S'32531'
p7585
sS'fishing Noun'
p7586
S'18103'
p7587
sS'grandfather Noun'
p7588
S'11003'
p7589
sS'episode Noun'
p7590
S'11070'
p7591
sS'rhythm Noun'
p7592
S'9010'
p7593
sS'professor Noun'
p7594
S'46575'
p7595
sS'medium Noun'
p7596
S'9523'
p7597
sS'immediate Adjective'
p7598
S'15680'
p7599
sS'hit Verb'
p7600
S'73999'
p7601
sS'unit Noun'
p7602
S'41087'
p7603
sS'coup Noun'
p7604
S'6179'
p7605
sS'loop Noun'
p7606
S'6175'
p7607
sS'acquire Verb'
p7608
S'17435'
p7609
sS'bit Noun'
p7610
S'41915'
p7611
sS'delight Noun'
p7612
S'5038'
p7613
sS'impact Noun'
p7614
S'43782'
p7615
sS'Internet Noun'
p7616
S'26983'
p7617
sS'handle Noun'
p7618
S'7101'
p7619
sS'consult Verb'
p7620
S'7778'
p7621
sS'orbit Noun'
p7622
S'6490'
p7623
sS'symbol Noun'
p7624
S'14596'
p7625
sS'reluctant Adjective'
p7626
S'6842'
p7627
sS'attractive Adjective'
p7628
S'11119'
p7629
sS'audience Noun'
p7630
S'36227'
p7631
sS'alliance Noun'
p7632
S'8948'
p7633
sS'board Noun'
p7634
S'58436'
p7635
sS'democracy Noun'
p7636
S'26039'
p7637
sS'electronics Noun'
p7638
S'5116'
p7639
sS'lesson Noun'
p7640
S'28623'
p7641
sS'commander Noun'
p7642
S'14425'
p7643
sS'finish Verb'
p7644
S'43143'
p7645
sS'performer Noun'
p7646
S'6896'
p7647
sS'mystery Noun'
p7648
S'14211'
p7649
sS'dried Adjective'
p7650
S'6109'
p7651
sS'provoke Verb'
p7652
S'5063'
p7653
sS'receiver Noun'
p7654
S'8882'
p7655
sS'progressive Adjective'
p7656
S'6387'
p7657
sS'sandwich Noun'
p7658
S'8298'
p7659
sS'funding Noun'
p7660
S'16282'
p7661
sS'guidance Noun'
p7662
S'7399'
p7663
sS'realm Noun'
p7664
S'7261'
p7665
sS'round Noun'
p7666
S'14539'
p7667
sS'talk Noun'
p7668
S'43267'
p7669
sS'rough Adjective'
p7670
S'12365'
p7671
sS'outer Adjective'
p7672
S'7618'
p7673
sS'presence Noun'
p7674
S'30624'
p7675
sS'recall Verb'
p7676
S'34442'
p7677
sS'assistant Noun'
p7678
S'11828'
p7679
sS'listen Verb'
p7680
S'64984'
p7681
sS'shout Verb'
p7682
S'17239'
p7683
sS'honey Noun'
p7684
S'11009'
p7685
sS'comprehensive Adjective'
p7686
S'11602'
p7687
sS'analysis Noun'
p7688
S'53840'
p7689
sS'quit Verb'
p7690
S'13045'
p7691
sS'guard Verb'
p7692
S'7659'
p7693
sS'debt Noun'
p7694
S'19506'
p7695
sS'cousin Noun'
p7696
S'12155'
p7697
sS'explanation Noun'
p7698
S'17712'
p7699
sS'perceived Adjective'
p7700
S'6386'
p7701
sS'minute Noun'
p7702
S'126660'
p7703
sS'short Adjective'
p7704
S'60451'
p7705
sS'seek Verb'
p7706
S'58495'
p7707
sS'false Adjective'
p7708
S'12871'
p7709
sS'remain Verb'
p7710
S'91319'
p7711
sS'tonight Adverb'
p7712
S'47549'
p7713
sS'breakfast Noun'
p7714
S'14397'
p7715
sS'institutional Adjective'
p7716
S'10397'
p7717
sS'terrain Noun'
p7718
S'5873'
p7719
sS'lately Adverb'
p7720
S'6696'
p7721
sS'float Verb'
p7722
S'9982'
p7723
sS'consecutive Adjective'
p7724
S'5471'
p7725
sS'brilliant Adjective'
p7726
S'9493'
p7727
sS'air Noun'
p7728
S'105932'
p7729
sS'spiritual Adjective'
p7730
S'17074'
p7731
sS'sovereignty Noun'
p7732
S'5541'
p7733
sS'update Verb'
p7734
S'5227'
p7735
sS'plant Verb'
p7736
S'13526'
p7737
sS'ballot Noun'
p7738
S'9217'
p7739
sS'adjust Verb'
p7740
S'14564'
p7741
sS'train Noun'
p7742
S'21766'
p7743
sS'pistol Noun'
p7744
S'5261'
p7745
sS'blue Adjective'
p7746
S'47622'
p7747
sS'trim Verb'
p7748
S'5113'
p7749
sS'immigration Noun'
p7750
S'14526'
p7751
sS'pound Verb'
p7752
S'5327'
p7753
sS'context Noun'
p7754
S'29113'
p7755
sS'painter Noun'
p7756
S'9153'
p7757
sS'adopt Verb'
p7758
S'22880'
p7759
sS'monitor Noun'
p7760
S'7879'
p7761
sS'shopping Noun'
p7762
S'11957'
p7763
sS'get Verb'
p7764
S'992596'
p7765
sS'external Adjective'
p7766
S'12260'
p7767
sS'accent Noun'
p7768
S'6486'
p7769
sS'southwest Noun'
p7770
S'8190'
p7771
sS'intimate Adjective'
p7772
S'6143'
p7773
sS'slow Verb'
p7774
S'15633'
p7775
sS'severe Adjective'
p7776
S'14609'
p7777
sS'sphere Noun'
p7778
S'5881'
p7779
sS'behavioral Adjective'
p7780
S'8320'
p7781
sS'cookie Noun'
p7782
S'9480'
p7783
sS'migration Noun'
p7784
S'6067'
p7785
sS'swallow Verb'
p7786
S'8583'
p7787
sS'traffic Noun'
p7788
S'21296'
p7789
sS'may Verb'
p7790
S'324569'
p7791
sS'electronic Adjective'
p7792
S'14057'
p7793
sS'bond Noun'
p7794
S'19856'
p7795
sS'wrap Verb'
p7796
S'17073'
p7797
sS'associate Verb'
p7798
S'30406'
p7799
sS'clearly Adverb'
p7800
S'45912'
p7801
sS'origin Noun'
p7802
S'13654'
p7803
sS'calculation Noun'
p7804
S'5577'
p7805
sS'bottom Adjective'
p7806
S'12169'
p7807
sS'stream Noun'
p7808
S'15400'
p7809
sS'remember Verb'
p7810
S'106879'
p7811
sS'bug Noun'
p7812
S'6541'
p7813
sS'plain Adjective'
p7814
S'8015'
p7815
sS'grab Verb'
p7816
S'26951'
p7817
sS'scientific Adjective'
p7818
S'23691'
p7819
sS'Soviet Adjective'
p7820
S'36193'
p7821
sS'installation Noun'
p7822
S'5938'
p7823
sS'bring Verb'
p7824
S'174366'
p7825
sS'reference Noun'
p7826
S'19559'
p7827
sS'department Noun'
p7828
S'32252'
p7829
sS'command Noun'
p7830
S'14022'
p7831
sS'authority Noun'
p7832
S'47309'
p7833
sS'afraid Adjective'
p7834
S'27727'
p7835
sS'clear Adjective'
p7836
S'68662'
p7837
sS'kind Noun'
p7838
S'155032'
p7839
sS'vaccine Noun'
p7840
S'6761'
p7841
sS'auto Noun'
p7842
S'10006'
p7843
sS'domain Noun'
p7844
S'8641'
p7845
sS'efficiency Noun'
p7846
S'10579'
p7847
sS'scan Verb'
p7848
S'6879'
p7849
sS'awake Adjective'
p7850
S'5806'
p7851
sS'description Noun'
p7852
S'16415'
p7853
sS'loud Adverb'
p7854
S'7541'
p7855
sS'general Adverb'
p7856
S'13256'
p7857
sS'servant Noun'
p7858
S'7064'
p7859
sS'conception Noun'
p7860
S'5953'
p7861
sS'auction Noun'
p7862
S'5621'
p7863
sS'chop Verb'
p7864
S'7452'
p7865
sS'act Verb'
p7866
S'45648'
p7867
sS'fixed Adjective'
p7868
S'6042'
p7869
sS'study Noun'
p7870
S'174069'
p7871
sS'popularity Noun'
p7872
S'6836'
p7873
sS'command Verb'
p7874
S'6688'
p7875
sS'meter Noun'
p7876
S'10246'
p7877
sS'use Verb'
p7878
S'420781'
p7879
sS'punch Verb'
p7880
S'6071'
p7881
sS'tourism Noun'
p7882
S'5429'
p7883
sS'judicial Adjective'
p7884
S'7213'
p7885
sS'down Adverb'
p7886
S'329409'
p7887
sS'staff Noun'
p7888
S'50177'
p7889
sS'functional Adjective'
p7890
S'6736'
p7891
sS'rider Noun'
p7892
S'7450'
p7893
sS'previously Adverb'
p7894
S'15092'
p7895
sS'meal Noun'
p7896
S'21556'
p7897
sS'step Noun'
p7898
S'66232'
p7899
sS'hostage Noun'
p7900
S'8605'
p7901
sS'relief Noun'
p7902
S'19493'
p7903
sS'nest Noun'
p7904
S'6541'
p7905
sS'jazz Noun'
p7906
S'7220'
p7907
sS'heal Verb'
p7908
S'5797'
p7909
sS'waist Noun'
p7910
S'6394'
p7911
sS'remark Verb'
p7912
S'5289'
p7913
sS'log Noun'
p7914
S'8606'
p7915
sS'perhaps Adverb'
p7916
S'87060'
p7917
sS'usual Adjective'
p7918
S'14305'
p7919
sS'Russian Adjective'
p7920
S'23739'
p7921
sS'cover Verb'
p7922
S'69387'
p7923
sS'cab Noun'
p7924
S'6561'
p7925
sS'concern Noun'
p7926
S'55203'
p7927
sS'relative Noun'
p7928
S'13541'
p7929
sS'modify Verb'
p7930
S'8997'
p7931
sS'please Adverb'
p7932
S'34709'
p7933
sS'call Noun'
p7934
S'59543'
p7935
sS'asset Noun'
p7936
S'16977'
p7937
sS'producer Noun'
p7938
S'19679'
p7939
sS'senior Adjective'
p7940
S'36598'
p7941
sS'laughter Noun'
p7942
S'9019'
p7943
sS'fail Verb'
p7944
S'47503'
p7945
sS'joke Verb'
p7946
S'5576'
p7947
sS'pork Noun'
p7948
S'6261'
p7949
sS'developing Adjective'
p7950
S'13171'
p7951
sS'hypothesis Noun'
p7952
S'9890'
p7953
sS'diagnosis Noun'
p7954
S'8454'
p7955
sS'restaurant Noun'
p7956
S'35898'
p7957
sS'method Noun'
p7958
S'42667'
p7959
sS'surveillance Noun'
p7960
S'5132'
p7961
sS'agency Noun'
p7962
S'56954'
p7963
sS'crush Verb'
p7964
S'5985'
p7965
sS'recovery Noun'
p7966
S'13703'
p7967
sS'really Adverb'
p7968
S'263414'
p7969
sS'best Adjective'
p7970
S'124850'
p7971
sS'reward Noun'
p7972
S'8662'
p7973
sS'significant Adjective'
p7974
S'58947'
p7975
sS'stability Noun'
p7976
S'10901'
p7977
sS'territory Noun'
p7978
S'15831'
p7979
sS'raise Verb'
p7980
S'87036'
p7981
sS'calculate Verb'
p7982
S'10485'
p7983
sS'legacy Noun'
p7984
S'9461'
p7985
sS'divorce Verb'
p7986
S'6086'
p7987
sS'poetry Noun'
p7988
S'10671'
p7989
sS'regulate Verb'
p7990
S'8856'
p7991
sS'factor Noun'
p7992
S'57612'
p7993
sS'affair Noun'
p7994
S'27432'
p7995
sS'contributor Noun'
p7996
S'5084'
p7997
sS'ordinary Adjective'
p7998
S'14776'
p7999
sS'general Adjective'
p8000
S'49657'
p8001
sS'sound Noun'
p8002
S'56828'
p8003
sS'integrate Verb'
p8004
S'9060'
p8005
sS'detailed Adjective'
p8006
S'10006'
p8007
sS'stuff Noun'
p8008
S'40180'
p8009
sS'witness Verb'
p8010
S'10178'
p8011
sS'gut Noun'
p8012
S'6067'
p8013
sS'privilege Noun'
p8014
S'7923'
p8015
sS'wide Adjective'
p8016
S'41233'
p8017
sS'upstairs Adverb'
p8018
S'6271'
p8019
sS'list Noun'
p8020
S'50678'
p8021
sS'organ Noun'
p8022
S'8596'
p8023
sS'loyal Adjective'
p8024
S'5066'
p8025
sS'close Adverb'
p8026
S'42826'
p8027
sS'type Noun'
p8028
S'68481'
p8029
sS'corruption Noun'
p8030
S'7518'
p8031
sS'rape Noun'
p8032
S'8790'
p8033
sS'civilization Noun'
p8034
S'8447'
p8035
sS'guide Verb'
p8036
S'10524'
p8037
sS'naturally Adverb'
p8038
S'11304'
p8039
sS'leadership Noun'
p8040
S'30047'
p8041
sS'treatment Noun'
p8042
S'53390'
p8043
sS'conclude Verb'
p8044
S'22247'
p8045
sS'keep Verb'
p8046
S'231760'
p8047
sS'weed Noun'
p8048
S'5642'
p8049
sS'nutrient Noun'
p8050
S'5426'
p8051
sS'protect Verb'
p8052
S'50649'
p8053
sS'root Verb'
p8054
S'6276'
p8055
sS'evolution Noun'
p8056
S'11066'
p8057
sS'Palestinian Adjective'
p8058
S'14008'
p8059
sS'top Verb'
p8060
S'8162'
p8061
sS'soil Noun'
p8062
S'20916'
p8063
sS'behavior Noun'
p8064
S'62625'
p8065
sS'attention Noun'
p8066
S'65271'
p8067
sS'copy Verb'
p8068
S'4970'
p8069
sS'divine Adjective'
p8070
S'7059'
p8071
sS'Canadian Adjective'
p8072
S'12820'
p8073
sS'help Noun'
p8074
S'43721'
p8075
sS'magazine Noun'
p8076
S'39197'
p8077
sS'principal Adjective'
p8078
S'9218'
p8079
sS'start Verb'
p8080
S'213952'
p8081
sS'virtue Noun'
p8082
S'9111'
p8083
sS'isolate Verb'
p8084
S'6920'
p8085
sS'actually Adverb'
p8086
S'105155'
p8087
sS'collaboration Noun'
p8088
S'6889'
p8089
sS'sock Noun'
p8090
S'6273'
p8091
sS'now Adverb'
p8092
S'605997'
p8093
sS'slow Adjective'
p8094
S'20404'
p8095
sS'drink Verb'
p8096
S'32078'
p8097
sS'gallery Noun'
p8098
S'8963'
p8099
sS'international Adjective'
p8100
S'81610'
p8101
sS'day Noun'
p8102
S'432773'
p8103
sS'able Adjective'
p8104
S'103171'
p8105
sS'project Noun'
p8106
S'75446'
p8107
sS'incredibly Adverb'
p8108
S'6141'
p8109
sS'know Verb'
p8110
S'892535'
p8111
sS'matter Noun'
p8112
S'73842'
p8113
sS'health Noun'
p8114
S'117762'
p8115
sS'restriction Noun'
p8116
S'9928'
p8117
sS'instant Adjective'
p8118
S'5765'
p8119
sS'lightning Noun'
p8120
S'5674'
p8121
sS'control Noun'
p8122
S'90301'
p8123
sS'rope Noun'
p8124
S'9300'
p8125
sS'stop Noun'
p8126
S'14117'
p8127
sS'measure Verb'
p8128
S'28612'
p8129
sS'visit Noun'
p8130
S'25000'
p8131
sS'champion Noun'
p8132
S'12247'
p8133
sS'score Verb'
p8134
S'20391'
p8135
sS'interview Verb'
p8136
S'15687'
p8137
sS'well Adverb'
p8138
S'411776'
p8139
sS'shop Noun'
p8140
S'28589'
p8141
sS'aircraft Noun'
p8142
S'11591'
p8143
sS'reputation Noun'
p8144
S'13681'
p8145
sS'print Verb'
p8146
S'9508'
p8147
sS'seminar Noun'
p8148
S'5106'
p8149
sS'whip Verb'
p8150
S'6255'
p8151
sS'implement Verb'
p8152
S'16124'
p8153
sS'whisper Verb'
p8154
S'15383'
p8155
sS'maintenance Noun'
p8156
S'10167'
p8157
sS'trouble Verb'
p8158
S'5177'
p8159
sS'shoe Noun'
p8160
S'26945'
p8161
sS'this Adverb'
p8162
S'5517'
p8163
sS'west Noun'
p8164
S'58169'
p8165
sS'vessel Noun'
p8166
S'10920'
p8167
sS'weapon Noun'
p8168
S'43158'
p8169
sS'proposed Adjective'
p8170
S'10288'
p8171
sS'casualty Noun'
p8172
S'6439'
p8173
sS'plane Noun'
p8174
S'33900'
p8175
sS'resort Noun'
p8176
S'12379'
p8177
sS'tip Verb'
p8178
S'8300'
p8179
sS'testify Verb'
p8180
S'11843'
p8181
sS'join Verb'
p8182
S'80609'
p8183
sS'magic Noun'
p8184
S'7415'
p8185
sS'dynamic Adjective'
p8186
S'7175'
p8187
sS'newspaper Noun'
p8188
S'37522'
p8189
sS'expected Adjective'
p8190
S'6144'
p8191
sS'key Noun'
p8192
S'25436'
p8193
sS'stiff Adjective'
p8194
S'6697'
p8195
sS'satisfaction Noun'
p8196
S'12237'
p8197
sS'pencil Noun'
p8198
S'5936'
p8199
sS'reinforce Verb'
p8200
S'9345'
p8201
sS'return Noun'
p8202
S'31058'
p8203
sS'bullet Noun'
p8204
S'11706'
p8205
sS'kit Noun'
p8206
S'6912'
p8207
sS'corner Noun'
p8208
S'35496'
p8209
sS'facility Noun'
p8210
S'30107'
p8211
sS'check Noun'
p8212
S'18764'
p8213
sS'course Noun'
p8214
S'64012'
p8215
sS'entertainment Noun'
p8216
S'14615'
p8217
sS'relate Verb'
p8218
S'39143'
p8219
sS'catch Verb'
p8220
S'68214'
p8221
sS'loan Noun'
p8222
S'22324'
p8223
sS'creative Adjective'
p8224
S'17597'
p8225
sS'cloth Noun'
p8226
S'8287'
p8227
sS'elder Noun'
p8228
S'6808'
p8229
sS'fund Verb'
p8230
S'10218'
p8231
sS'talk Verb'
p8232
S'229429'
p8233
sS'parent Noun'
p8234
S'119610'
p8235
sS'block Verb'
p8236
S'13688'
p8237
sS'adapt Verb'
p8238
S'10987'
p8239
sS'easily Adverb'
p8240
S'31755'
p8241
sS'suspect Noun'
p8242
S'10204'
p8243
sS'existing Adjective'
p8244
S'16654'
p8245
sS'crisis Noun'
p8246
S'32924'
p8247
sS'success Noun'
p8248
S'50541'
p8249
sS'afterward Adverb'
p8250
S'6353'
p8251
sS'credit Noun'
p8252
S'34578'
p8253
sS'strongly Adverb'
p8254
S'14459'
p8255
sS'gay Adjective'
p8256
S'17428'
p8257
sS'language Noun'
p8258
S'55799'
p8259
sS'measure Noun'
p8260
S'43938'
p8261
sS'wheel Noun'
p8262
S'18296'
p8263
sS'statistical Adjective'
p8264
S'6634'
p8265
sS'formal Adjective'
p8266
S'16078'
p8267
sS'push Verb'
p8268
S'56103'
p8269
sS'deem Verb'
p8270
S'5639'
p8271
sS'negative Adjective'
p8272
S'26847'
p8273
sS'lawn Noun'
p8274
S'10815'
p8275
sS'incident Noun'
p8276
S'17880'
p8277
sS'leaf Noun'
p8278
S'24044'
p8279
sS'definitely Adverb'
p8280
S'18214'
p8281
sS'level Adjective'
p8282
S'5367'
p8283
sS'increased Adjective'
p8284
S'18984'
p8285
sS'stand Verb'
p8286
S'140937'
p8287
sS'surround Verb'
p8288
S'22391'
p8289
sS'marble Noun'
p8290
S'5210'
p8291
sS'trace Verb'
p8292
S'10033'
p8293
sS'planet Noun'
p8294
S'23567'
p8295
sS'heart Noun'
p8296
S'84536'
p8297
sS'weakness Noun'
p8298
S'8275'
p8299
sS'oven Noun'
p8300
S'11454'
p8301
sS'rid Verb'
p8302
S'10104'
p8303
sS'dust Noun'
p8304
S'15475'
p8305
sS'counseling Noun'
p8306
S'9303'
p8307
sS'convenience Noun'
p8308
S'4972'
p8309
sS'expensive Adjective'
p8310
S'21706'
p8311
sS'council Noun'
p8312
S'10695'
p8313
sS'engine Noun'
p8314
S'23617'
p8315
sS'television Noun'
p8316
S'49673'
p8317
sS'set Noun'
p8318
S'45121'
p8319
sS'better Adverb'
p8320
S'78334'
p8321
sS'praise Verb'
p8322
S'7379'
p8323
sS'container Noun'
p8324
S'8956'
p8325
sS'parade Noun'
p8326
S'7010'
p8327
sS'need Noun'
p8328
S'74877'
p8329
sS'diverse Adjective'
p8330
S'12015'
p8331
sS'single Adjective'
p8332
S'60072'
p8333
sS'requirement Noun'
p8334
S'20358'
p8335
sS'doctor Noun'
p8336
S'69446'
p8337
sS'stick Noun'
p8338
S'11795'
p8339
sS'totally Adverb'
p8340
S'18720'
p8341
sS'scope Noun'
p8342
S'10115'
p8343
sS'nearby Adjective'
p8344
S'13820'
p8345
sS'independent Adjective'
p8346
S'31044'
p8347
sS'gold Noun'
p8348
S'30733'
p8349
sS'civic Adjective'
p8350
S'7088'
p8351
sS'place Noun'
p8352
S'202427'
p8353
sS'bare Adjective'
p8354
S'8943'
p8355
sS'spark Verb'
p8356
S'5071'
p8357
sS'trend Noun'
p8358
S'21894'
p8359
sS'dance Verb'
p8360
S'18263'
p8361
sS'sanction Noun'
p8362
S'10163'
p8363
sS'wind Noun'
p8364
S'36478'
p8365
sS'industrial Adjective'
p8366
S'19413'
p8367
sS'carbon Noun'
p8368
S'10799'
p8369
sS'solve Verb'
p8370
S'19501'
p8371
sS'stretch Noun'
p8372
S'8285'
p8373
sS'animal Noun'
p8374
S'53127'
p8375
sS'ultimate Adjective'
p8376
S'12542'
p8377
sS'fish Noun'
p8378
S'41488'
p8379
sS'infrastructure Noun'
p8380
S'7961'
p8381
sS'award Noun'
p8382
S'12874'
p8383
sS'interpret Verb'
p8384
S'12321'
p8385
sS'eye Noun'
p8386
S'169150'
p8387
sS'Jew Noun'
p8388
S'17893'
p8389
sS'outside Adverb'
p8390
S'21556'
p8391
sS'await Verb'
p8392
S'7550'
p8393
sS'overwhelming Adjective'
p8394
S'7831'
p8395
sS'overall Adjective'
p8396
S'19031'
p8397
sS'fantasy Noun'
p8398
S'10448'
p8399
sS'fly Verb'
p8400
S'41373'
p8401
sS'expense Noun'
p8402
S'16274'
p8403
sS'speech Noun'
p8404
S'35504'
p8405
sS'balanced Adjective'
p8406
S'5486'
p8407
sS'fabric Noun'
p8408
S'10320'
p8409
sS'gun Noun'
p8410
S'47305'
p8411
sS'similar Adjective'
p8412
S'55901'
p8413
sS'dancer Noun'
p8414
S'7664'
p8415
sS'seldom Adverb'
p8416
S'5009'
p8417
sS'grin Verb'
p8418
S'7242'
p8419
sS'consequently Adverb'
p8420
S'6463'
p8421
sS'art Noun'
p8422
S'117851'
p8423
sS'sense Verb'
p8424
S'9697'
p8425
sS'balance Verb'
p8426
S'11536'
p8427
sS'fat Noun'
p8428
S'24844'
p8429
sS'war Noun'
p8430
S'117804'
p8431
sS'clay Noun'
p8432
S'5287'
p8433
sS'class Noun'
p8434
S'91323'
p8435
sS'call Verb'
p8436
S'308050'
p8437
sS'nerve Noun'
p8438
S'9933'
p8439
sS'wagon Noun'
p8440
S'6577'
p8441
sS'middle-class Adjective'
p8442
S'5025'
p8443
sS'judge Noun'
p8444
S'35464'
p8445
sS'minimize Verb'
p8446
S'7139'
p8447
sS'education Noun'
p8448
S'113731'
p8449
sS'promise Noun'
p8450
S'17342'
p8451
sS'prepare Verb'
p8452
S'49208'
p8453
sS'publicly Adverb'
p8454
S'10169'
p8455
sS'burn Verb'
p8456
S'26646'
p8457
sS'clean Verb'
p8458
S'18766'
p8459
sS'live Adjective'
p8460
S'17365'
p8461
sS'Catholic Noun'
p8462
S'9955'
p8463
sS'informal Adjective'
p8464
S'5931'
p8465
sS'veteran Adjective'
p8466
S'5312'
p8467
sS'resist Verb'
p8468
S'13330'
p8469
sS'worried Adjective'
p8470
S'9215'
p8471
sS'gasoline Noun'
p8472
S'6696'
p8473
sS'justify Verb'
p8474
S'11409'
p8475
sS'scientist Noun'
p8476
S'37700'
p8477
sS'guitar Noun'
p8478
S'7712'
p8479
sS'attitude Noun'
p8480
S'35437'
p8481
sS'pay Verb'
p8482
S'133133'
p8483
sS'bag Noun'
p8484
S'40007'
p8485
sS'corn Noun'
p8486
S'13739'
p8487
sS'theoretical Adjective'
p8488
S'8320'
p8489
sS'pose Verb'
p8490
S'15230'
p8491
sS'remind Verb'
p8492
S'25525'
p8493
sS'exactly Adverb'
p8494
S'52685'
p8495
sS'hit Noun'
p8496
S'15766'
p8497
sS'meaning Noun'
p8498
S'24064'
p8499
sS'prevail Verb'
p8500
S'5207'
p8501
sS'flower Noun'
p8502
S'25642'
p8503
sS'round Adjective'
p8504
S'10771'
p8505
sS'raw Adjective'
p8506
S'11310'
p8507
sS'transformation Noun'
p8508
S'9561'
p8509
sS'display Noun'
p8510
S'15575'
p8511
sS'legislature Noun'
p8512
S'6027'
p8513
sS'reduce Verb'
p8514
S'57029'
p8515
sS'row Noun'
p8516
S'19519'
p8517
sS'beach Noun'
p8518
S'18451'
p8519
sS'irony Noun'
p8520
S'5818'
p8521
sS'politically Adverb'
p8522
S'11324'
p8523
sS'cooperate Verb'
p8524
S'6763'
p8525
sS'user Noun'
p8526
S'20681'
p8527
sS'patient Adjective'
p8528
S'8504'
p8529
sS'tunnel Noun'
p8530
S'9024'
p8531
sS'thrive Verb'
p8532
S'5472'
p8533
sS'smell Verb'
p8534
S'15214'
p8535
sS'nomination Noun'
p8536
S'9698'
p8537
sS'Chinese Adjective'
p8538
S'32334'
p8539
sS'voting Noun'
p8540
S'6621'
p8541
sS'forest Noun'
p8542
S'35429'
p8543
sS'scenario Noun'
p8544
S'11747'
p8545
sS'enterprise Noun'
p8546
S'13542'
p8547
sS'anymore Adverb'
p8548
S'21771'
p8549
sS'secure Verb'
p8550
S'13181'
p8551
sS'occupy Verb'
p8552
S'11756'
p8553
sS'sales Noun'
p8554
S'32145'
p8555
sS'presidency Noun'
p8556
S'8814'
p8557
sS'farmer Noun'
p8558
S'23005'
p8559
sS'storage Noun'
p8560
S'10893'
p8561
sS'intelligent Adjective'
p8562
S'7373'
p8563
sS'point Noun'
p8564
S'177481'
p8565
sS'explain Verb'
p8566
S'80797'
p8567
sS'new Adjective'
p8568
S'435993'
p8569
sS'regard Verb'
p8570
S'16890'
p8571
sS'complete Verb'
p8572
S'32813'
p8573
sS'cave Noun'
p8574
S'8261'
p8575
sS'friendship Noun'
p8576
S'10130'
p8577
sS'charity Noun'
p8578
S'9054'
p8579
sS'technician Noun'
p8580
S'5048'
p8581
sS'Olympics Noun'
p8582
S'8039'
p8583
sS'pregnant Adjective'
p8584
S'12329'
p8585
sS'phase Noun'
p8586
S'16045'
p8587
sS'powder Noun'
p8588
S'9639'
p8589
sS'separation Noun'
p8590
S'7760'
p8591
sS'scholarship Noun'
p8592
S'10305'
p8593
sS'echo Verb'
p8594
S'8477'
p8595
sS'scratch Verb'
p8596
S'5629'
p8597
sS'adviser Noun'
p8598
S'12112'
p8599
sS'cattle Noun'
p8600
S'7827'
p8601
sS'shoulder Noun'
p8602
S'42843'
p8603
sS'encourage Verb'
p8604
S'33348'
p8605
sS'imagination Noun'
p8606
S'10913'
p8607
sS'past Adjective'
p8608
S'56588'
p8609
sS'rim Noun'
p8610
S'5676'
p8611
sS'historian Noun'
p8612
S'13437'
p8613
sS'signal Noun'
p8614
S'16835'
p8615
sS'cream Noun'
p8616
S'18443'
p8617
sS'sick Adjective'
p8618
S'20906'
p8619
sS'professional Adjective'
p8620
S'36319'
p8621
sS'service Noun'
p8622
S'146122'
p8623
sS'see Verb'
p8624
S'663645'
p8625
sS'alternative Noun'
p8626
S'17197'
p8627
sS'out Adverb'
p8628
S'678603'
p8629
sS'sister Noun'
p8630
S'48183'
p8631
sS'impose Verb'
p8632
S'14881'
p8633
sS'sodium Noun'
p8634
S'7998'
p8635
sS'pattern Noun'
p8636
S'40397'
p8637
sS'pan Noun'
p8638
S'14148'
p8639
sS'unlikely Adjective'
p8640
S'11869'
p8641
sS'stem Noun'
p8642
S'8963'
p8643
sS'fund Noun'
p8644
S'53859'
p8645
sS'mother Noun'
p8646
S'169407'
p8647
sS'eliminate Verb'
p8648
S'19773'
p8649
sS'orientation Noun'
p8650
S'10613'
p8651
sS'plant Noun'
p8652
S'63476'
p8653
sS'blade Noun'
p8654
S'10394'
p8655
sS'prize Noun'
p8656
S'7519'
p8657
sS'closer Adjective'
p8658
S'9976'
p8659
sS'monster Noun'
p8660
S'8164'
p8661
sS'addition Noun'
p8662
S'7027'
p8663
sS'hormone Noun'
p8664
S'6230'
p8665
sS'sweet Adjective'
p8666
S'23843'
p8667
sS'willingness Noun'
p8668
S'6461'
p8669
sS'doubt Noun'
p8670
S'18542'
p8671
sS'glimpse Noun'
p8672
S'5567'
p8673
sS'correspondent Noun'
p8674
S'12008'
p8675
sS'company Noun'
p8676
S'203345'
p8677
sS'retail Adjective'
p8678
S'8600'
p8679
sS'trigger Verb'
p8680
S'7630'
p8681
sS'best Adverb'
p8682
S'39959'
p8683
sS'hard Adverb'
p8684
S'50793'
p8685
sS'vary Verb'
p8686
S'14954'
p8687
sS'import Noun'
p8688
S'6944'
p8689
sS'army Noun'
p8690
S'23929'
p8691
sS'consistently Adverb'
p8692
S'8104'
p8693
sS'average Adjective'
p8694
S'29717'
p8695
sS'alcohol Noun'
p8696
S'15877'
p8697
sS'pickup Noun'
p8698
S'7415'
p8699
sS'chill Noun'
p8700
S'5675'
p8701
sS'encounter Noun'
p8702
S'8073'
p8703
sS'brave Adjective'
p8704
S'5061'
p8705
sS'amazing Adjective'
p8706
S'15124'
p8707
sS'stack Noun'
p8708
S'5858'
p8709
sS'psychologist Noun'
p8710
S'10698'
p8711
sS'suit Noun'
p8712
S'27066'
p8713
sS'long Adjective'
p8714
S'149050'
p8715
sS'quietly Adverb'
p8716
S'13503'
p8717
sS'jump Noun'
p8718
S'6088'
p8719
sS'mark Noun'
p8720
S'15973'
p8721
sS'warehouse Noun'
p8722
S'5020'
p8723
sS'truly Adverb'
p8724
S'20576'
p8725
sS'inherent Adjective'
p8726
S'5339'
p8727
sS'toilet Noun'
p8728
S'6939'
p8729
sS'tune Verb'
p8730
S'7934'
p8731
sS'ad Noun'
p8732
S'21064'
p8733
sS'articulate Verb'
p8734
S'5350'
p8735
sS'generation Noun'
p8736
S'38323'
p8737
sS'put Verb'
p8738
S'237480'
p8739
sS'split Verb'
p8740
S'10593'
p8741
sS'resolution Noun'
p8742
S'18922'
p8743
sS'carefully Adverb'
p8744
S'22837'
p8745
sS'relatively Adverb'
p8746
S'26476'
p8747
sS'religious Adjective'
p8748
S'46425'
p8749
sS'do Verb'
p8750
S'2573587'
p8751
sS'refugee Noun'
p8752
S'13010'
p8753
sS'about Adverb'
p8754
S'208550'
p8755
sS'speed Verb'
p8756
S'7936'
p8757
sS'Arab Noun'
p8758
S'7222'
p8759
sS'investor Noun'
p8760
S'22410'
p8761
sS'spot Verb'
p8762
S'11143'
p8763
sS'wife Noun'
p8764
S'83601'
p8765
sS'ironically Adverb'
p8766
S'5154'
p8767
sS'cancer Noun'
p8768
S'39407'
p8769
sS'ring Noun'
p8770
S'21873'
p8771
sS'feedback Noun'
p8772
S'7735'
p8773
sS'boat Noun'
p8774
S'32079'
p8775
sS'accusation Noun'
p8776
S'4987'
p8777
sS'badly Adverb'
p8778
S'9652'
p8779
sS'planning Noun'
p8780
S'16434'
p8781
sS'better Adjective'
p8782
S'83895'
p8783
sS'convention Noun'
p8784
S'14497'
p8785
sS'indicator Noun'
p8786
S'7574'
p8787
sS'circle Verb'
p8788
S'5401'
p8789
sS'disability Noun'
p8790
S'14197'
p8791
sS'sun Noun'
p8792
S'32646'
p8793
sS'early Adjective'
p8794
S'108171'
p8795
sS'voter Noun'
p8796
S'27768'
p8797
sS'beginning Noun'
p8798
S'31866'
p8799
sS'powerful Adjective'
p8800
S'33151'
p8801
sS'unfold Verb'
p8802
S'5420'
p8803
sS'collect Verb'
p8804
S'28946'
p8805
sS'mountain Noun'
p8806
S'31322'
p8807
sS'marine Adjective'
p8808
S'5154'
p8809
sS'ensure Verb'
p8810
S'21341'
p8811
sS'ignore Verb'
p8812
S'27023'
p8813
sS'aggression Noun'
p8814
S'6215'
p8815
sS'quarter Noun'
p8816
S'27125'
p8817
sS'unexpected Adjective'
p8818
S'7829'
p8819
sS'administer Verb'
p8820
S'8135'
p8821
sS'cancel Verb'
p8822
S'6932'
p8823
sS'frequent Adjective'
p8824
S'9267'
p8825
sS'regional Adjective'
p8826
S'23182'
p8827
sS'parish Noun'
p8828
S'5723'
p8829
sS'wave Verb'
p8830
S'13567'
p8831
sS'perfectly Adverb'
p8832
S'13671'
p8833
sS'medium Adjective'
p8834
S'8586'
p8835
sS'vitamin Noun'
p8836
S'8245'
p8837
sS'ranch Noun'
p8838
S'6759'
p8839
sS'Greek Adjective'
p8840
S'6642'
p8841
sS'speed Noun'
p8842
S'27740'
p8843
sS'attempt Verb'
p8844
S'22758'
p8845
sS'match Noun'
p8846
S'12025'
p8847
sS'wire Noun'
p8848
S'14310'
p8849
sS'range Noun'
p8850
S'41326'
p8851
sS'hay Noun'
p8852
S'7304'
p8853
sS'lawyer Noun'
p8854
S'47853'
p8855
sS'cluster Noun'
p8856
S'9821'
p8857
sS'notebook Noun'
p8858
S'5884'
p8859
sS'fit Verb'
p8860
S'27875'
p8861
sS'patch Noun'
p8862
S'9155'
p8863
sS'stadium Noun'
p8864
S'6977'
p8865
sS'aggressive Adjective'
p8866
S'13191'
p8867
sS'trial Noun'
p8868
S'44489'
p8869
sS'makeup Noun'
p8870
S'8916'
p8871
sS'expert Noun'
p8872
S'43898'
p8873
sS'explosion Noun'
p8874
S'10148'
p8875
sS'kill Verb'
p8876
S'92660'
p8877
sS'funeral Noun'
p8878
S'11086'
p8879
sS'born Verb'
p8880
S'35352'
p8881
sS'loss Noun'
p8882
S'49759'
p8883
sS'very Adjective'
p8884
S'31807'
p8885
sS'male Adjective'
p8886
S'24873'
p8887
sS'pasta Noun'
p8888
S'6062'
p8889
sS'will Verb'
p8890
S'824568'
p8891
sS'appoint Verb'
p8892
S'9541'
p8893
sS'sign Noun'
p8894
S'50045'
p8895
sS'artificial Adjective'
p8896
S'6730'
p8897
sS'pitcher Noun'
p8898
S'8835'
p8899
sS'insect Noun'
p8900
S'8814'
p8901
sS'dissolve Verb'
p8902
S'6157'
p8903
sS'idea Noun'
p8904
S'122140'
p8905
sS'commercial Adjective'
p8906
S'40608'
p8907
sS'lead Verb'
p8908
S'122691'
p8909
sS'republic Noun'
p8910
S'7519'
p8911
sS'consumption Noun'
p8912
S'10162'
p8913
sS'craft Noun'
p8914
S'11559'
p8915
sS'component Noun'
p8916
S'22085'
p8917
sS'bonus Noun'
p8918
S'6531'
p8919
sS'appeal Noun'
p8920
S'19561'
p8921
sS'fruit Noun'
p8922
S'22401'
p8923
sS'carry Verb'
p8924
S'79513'
p8925
sS'estimate Noun'
p8926
S'13718'
p8927
sS'peace Noun'
p8928
S'42273'
p8929
sS'last Verb'
p8930
S'21219'
p8931
sS'arrival Noun'
p8932
S'9302'
p8933
sS'military Noun'
p8934
S'9288'
p8935
sS'contribute Verb'
p8936
S'30090'
p8937
sS'missile Noun'
p8938
S'15147'
p8939
sS'invisible Adjective'
p8940
S'7355'
p8941
sS'field Noun'
p8942
S'87243'
p8943
sS'frustrate Verb'
p8944
S'4933'
p8945
sS'mobile Adjective'
p8946
S'5339'
p8947
sS'instruct Verb'
p8948
S'6117'
p8949
sS'defensive Adjective'
p8950
S'11442'
p8951
sS'soul Noun'
p8952
S'22713'
p8953
sS'injury Noun'
p8954
S'23935'
p8955
sS'city Noun'
p8956
S'132684'
p8957
sS'fun Adjective'
p8958
S'16932'
p8959
sS'attraction Noun'
p8960
S'7280'
p8961
sS'give Verb'
p8962
S'384503'
p8963
sS'historical Adjective'
p8964
S'27266'
p8965
sS'blink Verb'
p8966
S'6160'
p8967
sS'deny Verb'
p8968
S'26675'
p8969
sS'artistic Adjective'
p8970
S'9423'
p8971
sS'protein Noun'
p8972
S'14036'
p8973
sS'spread Noun'
p8974
S'6686'
p8975
sS'pastor Noun'
p8976
S'7260'
p8977
sS'plunge Verb'
p8978
S'5490'
p8979
sS'passage Noun'
p8980
S'15702'
p8981
sS'humanity Noun'
p8982
S'8259'
p8983
sS'ban Noun'
p8984
S'7070'
p8985
sS'attach Verb'
p8986
S'14552'
p8987
sS'output Noun'
p8988
S'7041'
p8989
sS'tower Noun'
p8990
S'13948'
p8991
sS'computer Noun'
p8992
S'67399'
p8993
sS'intensity Noun'
p8994
S'9238'
p8995
sS'could Verb'
p8996
S'617932'
p8997
sS'environmental Adjective'
p8998
S'51192'
p8999
sS'aspect Noun'
p9000
S'29460'
p9001
sS'legislation Noun'
p9002
S'17934'
p9003
sS'focus Noun'
p9004
S'26815'
p9005
sS'reader Noun'
p9006
S'31442'
p9007
sS'offensive Adjective'
p9008
S'9902'
p9009
sS'taste Verb'
p9010
S'12397'
p9011
sS'blind Adjective'
p9012
S'12005'
p9013
sS'preference Noun'
p9014
S'10833'
p9015
sS'waste Noun'
p9016
S'19069'
p9017
sS'complete Adjective'
p9018
S'25699'
p9019
sS'by Adverb'
p9020
S'32560'
p9021
sS'legal Adjective'
p9022
S'44820'
p9023
sS'purple Adjective'
p9024
S'7216'
p9025
sS'nature Noun'
p9026
S'57929'
p9027
sS'motion Noun'
p9028
S'19649'
p9029
sS'leather Noun'
p9030
S'11155'
p9031
sS'legally Adverb'
p9032
S'5484'
p9033
sS'buyer Noun'
p9034
S'10953'
p9035
sS'right Adverb'
p9036
S'205250'
p9037
sS'knee Noun'
p9038
S'25912'
p9039
sS'stuff Verb'
p9040
S'7687'
p9041
sS'typical Adjective'
p9042
S'19724'
p9043
sS'preserve Verb'
p9044
S'15527'
p9045
sS'active Adjective'
p9046
S'26507'
p9047
sS'task Noun'
p9048
S'39209'
p9049
sS'penalty Noun'
p9050
S'12310'
p9051
sS'uncover Verb'
p9052
S'5696'
p9053
sS'dip Verb'
p9054
S'5664'
p9055
sS'resolve Verb'
p9056
S'15260'
p9057
sS'basic Adjective'
p9058
S'34788'
p9059
sS'spirit Noun'
p9060
S'32942'
p9061
sS'reserve Verb'
p9062
S'6636'
p9063
sS'angle Noun'
p9064
S'10456'
p9065
sS'unemployment Noun'
p9066
S'8471'
p9067
sS'yet Adverb'
p9068
S'135484'
p9069
sS'extent Noun'
p9070
S'21727'
p9071
sS'purchase Noun'
p9072
S'10001'
p9073
sS'teenager Noun'
p9074
S'13615'
p9075
sS'target Verb'
p9076
S'10960'
p9077
sS'myth Noun'
p9078
S'10161'
p9079
sS'cognitive Adjective'
p9080
S'10166'
p9081
sS'lack Verb'
p9082
S'18215'
p9083
sS'running Noun'
p9084
S'5271'
p9085
sS'normal Adjective'
p9086
S'31265'
p9087
sS'affect Verb'
p9088
S'41496'
p9089
sS'text Noun'
p9090
S'32316'
p9091
sS'twin Noun'
p9092
S'14610'
p9093
sS'worry Verb'
p9094
S'40210'
p9095
sS'negotiate Verb'
p9096
S'13043'
p9097
sS'hopefully Adverb'
p9098
S'6986'
p9099
sS'consistent Adjective'
p9100
S'16334'
p9101
sS'install Verb'
p9102
S'13584'
p9103
sS'perfect Adjective'
p9104
S'33456'
p9105
sS'leg Noun'
p9106
S'47477'
p9107
sS'body Noun'
p9108
S'125165'
p9109
sS'battle Verb'
p9110
S'5240'
p9111
sS'sole Adjective'
p9112
S'5535'
p9113
sS'drill Verb'
p9114
S'5279'
p9115
sS'weak Adjective'
p9116
S'16628'
p9117
sS'increasing Adjective'
p9118
S'14886'
p9119
sS'message Noun'
p9120
S'47533'
p9121
sS'handsome Adjective'
p9122
S'7512'
p9123
sS'lost Adjective'
p9124
S'11886'
p9125
sS'tea Noun'
p9126
S'16373'
p9127
sS'suspicion Noun'
p9128
S'7187'
p9129
sS'position Verb'
p9130
S'6288'
p9131
sS'valuable Adjective'
p9132
S'12628'
p9133
sS'limb Noun'
p9134
S'8018'
p9135
sS'entrance Noun'
p9136
S'11121'
p9137
sS'often Adverb'
p9138
S'140731'
p9139
sS'build Verb'
p9140
S'96651'
p9141
sS'question Noun'
p9142
S'192070'
p9143
sS'increase Verb'
p9144
S'60442'
p9145
sS'ego Noun'
p9146
S'5239'
p9147
sS'spare Verb'
p9148
S'5492'
p9149
sS'shore Noun'
p9150
S'9191'
p9151
sS'marry Verb'
p9152
S'28722'
p9153
sS'tongue Noun'
p9154
S'11674'
p9155
sS'ground Noun'
p9156
S'74713'
p9157
sS'helpful Adjective'
p9158
S'10120'
p9159
sS'consumer Noun'
p9160
S'38079'
p9161
sS'teaching Noun'
p9162
S'24387'
p9163
sS'develop Verb'
p9164
S'84835'
p9165
sS'virtual Adjective'
p9166
S'7776'
p9167
sS'bacteria Noun'
p9168
S'8256'
p9169
sS'red Adjective'
p9170
S'66217'
p9171
sS'object Noun'
p9172
S'35040'
p9173
sS'saving Noun'
p9174
S'15917'
p9175
sS'lecture Noun'
p9176
S'8278'
p9177
sS'pump Noun'
p9178
S'8617'
p9179
sS'personnel Noun'
p9180
S'14095'
p9181
sS'mean Noun'
p9182
S'28991'
p9183
sS'shift Verb'
p9184
S'21323'
p9185
sS'leading Adjective'
p9186
S'15665'
p9187
sS'bow Verb'
p9188
S'5293'
p9189
sS'suck Verb'
p9190
S'8204'
p9191
sS'nearby Adverb'
p9192
S'7545'
p9193
sS'account Noun'
p9194
S'36786'
p9195
sS'advanced Adjective'
p9196
S'11626'
p9197
sS'trailer Noun'
p9198
S'6713'
p9199
sS'drop Noun'
p9200
S'12757'
p9201
sS'ideal Adjective'
p9202
S'11609'
p9203
sS'operation Noun'
p9204
S'47276'
p9205
sS'trick Noun'
p9206
S'10041'
p9207
sS'cast Noun'
p9208
S'6007'
p9209
sS'highway Noun'
p9210
S'12649'
p9211
sS'reason Noun'
p9212
S'106863'
p9213
sS'refuse Verb'
p9214
S'30173'
p9215
sS'resource Noun'
p9216
S'53398'
p9217
sS'boy Noun'
p9218
S'107447'
p9219
sS'atmosphere Noun'
p9220
S'15310'
p9221
sS'purse Noun'
p9222
S'6161'
p9223
sS'everywhere Adverb'
p9224
S'18126'
p9225
sS'care Noun'
p9226
S'88862'
p9227
sS'killer Noun'
p9228
S'12631'
p9229
sS'graduation Noun'
p9230
S'5218'
p9231
sS'initially Adverb'
p9232
S'12022'
p9233
sS'use Noun'
p9234
S'96564'
p9235
sS'holiday Noun'
p9236
S'18299'
p9237
sS'youngster Noun'
p9238
S'5184'
p9239
sS'frankly Adverb'
p9240
S'8620'
p9241
sS'blend Verb'
p9242
S'7238'
p9243
sS'lawsuit Noun'
p9244
S'12656'
p9245
sS'kiss Verb'
p9246
S'16128'
p9247
sS'stay Noun'
p9248
S'5779'
p9249
sS'occasion Noun'
p9250
S'14792'
p9251
sS'population Noun'
p9252
S'62999'
p9253
sS'angry Adjective'
p9254
S'21485'
p9255
sS'unite Verb'
p9256
S'6391'
p9257
sS'photographer Noun'
p9258
S'9739'
p9259
sS'manage Verb'
p9260
S'40536'
p9261
sS'fellow Adjective'
p9262
S'13585'
p9263
sS'suspect Verb'
p9264
S'16194'
p9265
sS'guess Verb'
p9266
S'48046'
p9267
sS'specifically Adverb'
p9268
S'18873'
p9269
sS'prompt Verb'
p9270
S'9741'
p9271
sS'construct Verb'
p9272
S'14234'
p9273
sS'character Noun'
p9274
S'49530'
p9275
sS'commission Noun'
p9276
S'14371'
p9277
sS'attack Verb'
p9278
S'23971'
p9279
sS'as Adverb'
p9280
S'281483'
p9281
sS'sky Noun'
p9282
S'35141'
p9283
sS'mean Adjective'
p9284
S'19792'
p9285
sS'rest Noun'
p9286
S'56714'
p9287
sS'fiction Noun'
p9288
S'11701'
p9289
sS'reflect Verb'
p9290
S'40687'
p9291
sS'ethics Noun'
p9292
S'9561'
p9293
sS'shed Verb'
p9294
S'5769'
p9295
sS'dangerous Adjective'
p9296
S'25170'
p9297
sS'competition Noun'
p9298
S'28752'
p9299
sS'enforce Verb'
p9300
S'8162'
p9301
sS'online Adverb'
p9302
S'8729'
p9303
sS'rumor Noun'
p9304
S'8023'
p9305
sS'wise Adjective'
p9306
S'9101'
p9307
sS'roll Verb'
p9308
S'31592'
p9309
sS'entry Noun'
p9310
S'14643'
p9311
sS'ride Noun'
p9312
S'17654'
p9313
sS'rule Noun'
p9314
S'61062'
p9315
sS'hearing Noun'
p9316
S'21560'
p9317
sS'Mexican Adjective'
p9318
S'15514'
p9319
sS'complex Noun'
p9320
S'9573'
p9321
sS'glance Verb'
p9322
S'16008'
p9323
sS'load Verb'
p9324
S'10736'
p9325
sS'precious Adjective'
p9326
S'6716'
p9327
sS'wait Verb'
p9328
S'102463'
p9329
sS'yellow Adjective'
p9330
S'22452'
p9331
sS'practice Verb'
p9332
S'10858'
p9333
sS'tough Adjective'
p9334
S'39600'
p9335
sS'design Noun'
p9336
S'48605'
p9337
sS'deliberately Adverb'
p9338
S'5388'
p9339
sS'pale Adjective'
p9340
S'11598'
p9341
sS'adjustment Noun'
p9342
S'10309'
p9343
sS'empty Adjective'
p9344
S'23365'
p9345
sS'turn Noun'
p9346
S'32944'
p9347
sS'element Noun'
p9348
S'33053'
p9349
sS'screening Noun'
p9350
S'5407'
p9351
sS'gang Noun'
p9352
S'12662'
p9353
sS'tray Noun'
p9354
S'6021'
p9355
sS'gift Noun'
p9356
S'27050'
p9357
sS'total Noun'
p9358
S'14559'
p9359
sS'sometime Adverb'
p9360
S'4938'
p9361
sS'identity Noun'
p9362
S'31163'
p9363
sS'increase Noun'
p9364
S'31247'
p9365
sS'arrest Noun'
p9366
S'10250'
p9367
sS'summary Noun'
p9368
S'5304'
p9369
sS'error Noun'
p9370
S'15980'
p9371
sS'loud Adjective'
p9372
S'10324'
p9373
sS'native Adjective'
p9374
S'28026'
p9375
sS'water Noun'
p9376
S'167666'
p9377
sS'tactic Noun'
p9378
S'8993'
p9379
sS'cross Verb'
p9380
S'27524'
p9381
sS'charge Noun'
p9382
S'42353'
p9383
sS'outstanding Adjective'
p9384
S'6803'
p9385
sS'theory Noun'
p9386
S'45553'
p9387
sS'fate Noun'
p9388
S'10521'
p9389
sS'Mr Noun'
p9390
S'188555'
p9391
sS'below Adverb'
p9392
S'26765'
p9393
sS'advice Noun'
p9394
S'21970'
p9395
sS'related Adjective'
p9396
S'9227'
p9397
sS'qualify Verb'
p9398
S'10090'
p9399
sS'generate Verb'
p9400
S'22213'
p9401
sS'shape Noun'
p9402
S'30396'
p9403
sS'campaign Noun'
p9404
S'64172'
p9405
sS'issue Noun'
p9406
S'156417'
p9407
sS'weather Noun'
p9408
S'22586'
p9409
sS'indeed Adverb'
p9410
S'46184'
p9411
sS'bolt Noun'
p9412
S'5148'
p9413
sS'recover Verb'
p9414
S'15786'
p9415
sS'degree Noun'
p9416
S'50612'
p9417
sS'way Adverb'
p9418
S'6604'
p9419
sS'belt Noun'
p9420
S'13826'
p9421
sS'slope Noun'
p9422
S'8573'
p9423
sS'founder Noun'
p9424
S'11570'
p9425
sS'mere Adjective'
p9426
S'10778'
p9427
sS'name Noun'
p9428
S'127139'
p9429
sS'walking Noun'
p9430
S'7847'
p9431
sS'dilemma Noun'
p9432
S'6703'
p9433
sS'marriage Noun'
p9434
S'38517'
p9435
sS'flood Verb'
p9436
S'5531'
p9437
sS'chin Noun'
p9438
S'7585'
p9439
sS'strong Adjective'
p9440
S'83677'
p9441
sS'partly Adverb'
p9442
S'11132'
p9443
sS'harassment Noun'
p9444
S'5882'
p9445
s.